(lp0
ccopy_reg
_reconstructor
p1
(c__main__
DataEntry
p2
c__builtin__
tuple
p3
(F0.06796253472566605
F-0.29672887921333313
F-0.08583539724349976
F-0.9486650228500366
F-0.25713762640953064
F0.05468537658452988
F0.039559632539749146
F-0.0071404301561415195
F0.9513572454452515
F0.26521947979927063
F0.09998394548892975
F-0.543279767036438
F-0.018848365172743797
I-1
I0
tp4
tp5
Rp6
ag1
(g2
g3
(F0.19417989253997803
F-0.3615626394748688
F-0.13612112402915955
F-0.9016860127449036
F-6.431931018829346
F0.23503077030181885
F-0.8435510396957397
F-0.020853595808148384
F1.4134578704833984
F0.32381367683410645
F0.11182846873998642
F-0.48851293325424194
F-0.19953113794326782
I-1
I1
tp7
tp8
Rp9
ag1
(g2
g3
(F0.08552545309066772
F-0.3309898376464844
F-0.09915238618850708
F-0.9345051646232605
F4.711086750030518
F0.30251485109329224
F0.3688354194164276
F-0.12316861748695374
F1.525375247001648
F0.6016114354133606
F0.15952903032302856
F-0.523632824420929
F-0.15675079822540283
I-1
I2
tp10
tp11
Rp12
ag1
(g2
g3
(F-0.07212827354669571
F-0.3577667772769928
F-0.06907162815332413
F-0.9284555315971375
F4.572628021240234
F0.16987371444702148
F1.397385835647583
F0.23435190320014954
F1.7711400985717773
F1.3178174495697021
F0.17829100787639618
F-0.5543349385261536
F0.11472324281930923
I-1
I3
tp13
tp14
Rp15
ag1
(g2
g3
(F-0.015886306762695312
F-0.30913016200065613
F-0.11688535660505295
F-0.9436758160591125
F-1.1018521785736084
F0.06515704095363617
F-1.4951214790344238
F-0.615728497505188
F1.4613838195800781
F0.6217110753059387
F0.15494832396507263
F-0.4556909203529358
F0.08801283687353134
I-1
I4
tp16
tp17
Rp18
ag1
(g2
g3
(F0.07663475722074509
F-0.4250587821006775
F-0.04115257412195206
F-0.9009764790534973
F-0.026760928332805634
F-0.011635186150670052
F-0.05817593261599541
F-0.030482565984129906
F0.9537920951843262
F0.26082998514175415
F0.18090984225273132
F-0.4457654356956482
F0.05133791267871857
I-1
I5
tp19
tp20
Rp21
ag1
(g2
g3
(F0.08697238564491272
F-0.4682294428348541
F-0.0402543842792511
F-0.8783943057060242
F-0.030251484364271164
F-0.010471668094396591
F0.019779816269874573
F-0.03559177368879318
F0.9542815089225769
F0.2474355548620224
F0.18270525336265564
F-0.4448566138744354
F0.049509529024362564
I-1
I6
tp22
tp23
Rp24
ag1
(g2
g3
(F0.10774185508489609
F-0.5113526582717896
F-0.06326258182525635
F-0.8502398729324341
F-0.9657204747200012
F0.3013513386249542
F0.034905560314655304
F0.013004366308450699
F1.0016356706619263
F0.17487278580665588
F0.1743127852678299
F-0.4522726237773895
F0.018955230712890625
I-1
I7
tp25
tp26
Rp27
ag1
(g2
g3
(F0.2360912710428238
F-0.530358076095581
F-0.1313045471906662
F-0.8035796880722046
F-5.8862409591674805
F0.32462170720100403
F-1.2414743900299072
F0.12852711975574493
F1.7366799116134644
F0.0644514262676239
F0.18566179275512695
F-0.42044636607170105
F-0.12486805021762848
I-1
I8
tp28
tp29
Rp30
ag1
(g2
g3
(F0.06495890021324158
F-0.49206140637397766
F0.009427374228835106
F-0.8680823445320129
F1.5160647630691528
F-6.529666423797607
F-0.6189919114112854
F0.6205620765686035
F1.1418945789337158
F1.1867828369140625
F0.23800279200077057
F-0.347864031791687
F-0.12145712971687317
I-1
I9
tp31
tp32
Rp33
ag1
(g2
g3
(F0.003283909521996975
F-0.14707139134407043
F0.09607433527708054
F-0.9844434857368469
F1.6673221588134766
F-3.6348321437835693
F-0.8051549196243286
F0.1994842290878296
F0.7719729542732239
F0.9176690578460693
F0.21328604221343994
F-0.3773530125617981
F-0.16236421465873718
I-1
I10
tp34
tp35
Rp36
ag1
(g2
g3
(F0.05345914885401726
F0.14267636835575104
F0.09090370684862137
F-0.9841352105140686
F-0.3339298367500305
F0.048867784440517426
F0.4479546844959259
F0.15818841755390167
F0.8461897373199463
F0.16617263853549957
F0.10517028719186783
F-0.35320281982421875
F-0.27307984232902527
I-1
I11
tp37
tp38
Rp39
ag1
(g2
g3
(F0.10757331550121307
F0.17401829361915588
F0.061474431306123734
F-0.9769167900085449
F-0.503803551197052
F-0.1849994659423828
F0.0
F0.018606306985020638
F1.0069681406021118
F0.21967899799346924
F0.08215313404798508
F-0.3329012095928192
F-0.30184051394462585
I-1
I12
tp40
tp41
Rp42
ag1
(g2
g3
(F0.1318444460630417
F0.1997140645980835
F0.04752854257822037
F-0.9697795510292053
F-0.23852132260799408
F-0.06283000856637955
F0.055848896503448486
F-0.03268491476774216
F0.9703128933906555
F0.22040362656116486
F0.08022836595773697
F-0.3273898661136627
F-0.3119966983795166
I-1
I13
tp43
tp44
Rp45
ag1
(g2
g3
(F0.14985904097557068
F0.23844456672668457
F0.03853835538029671
F-0.9587498307228088
F-0.1151883453130722
F-0.018616298213601112
F0.15125742554664612
F-0.03194475919008255
F0.9550089836120605
F0.2484103888273239
F0.07380154728889465
F-0.32461610436439514
F-0.3194294571876526
I-1
I14
tp46
tp47
Rp48
ag1
(g2
g3
(F0.1523260474205017
F0.2545222043991089
F0.038211721926927567
F-0.9542300701141357
F-0.023270372301340103
F-0.027924448251724243
F0.1500938981771469
F-0.03462017700076103
F0.9533108472824097
F0.24280929565429688
F0.07291387021541595
F-0.32737454771995544
F-0.31852129101753235
I-1
I15
tp49
tp50
Rp51
ag1
(g2
g3
(F0.15171831846237183
F0.27189910411834717
F0.0374545082449913
F-0.9495522975921631
F-0.025597410276532173
F-0.025597410276532173
F0.06981112062931061
F-0.015653446316719055
F0.944806694984436
F0.24500729143619537
F0.07014370709657669
F-0.31999436020851135
F-0.3203718066215515
I-1
I16
tp52
tp53
Rp54
ag1
(g2
g3
(F0.14765655994415283
F0.30714213848114014
F0.045992083847522736
F-0.9390132427215576
F0.010471668094396591
F-0.0011635186383500695
F-0.031415004283189774
F-0.013225202448666096
F0.9533059597015381
F0.24111013114452362
F0.06742925196886063
F-0.3218255639076233
F-0.3203999996185303
I-1
I17
tp55
tp56
Rp57
ag1
(g2
g3
(F0.0843440517783165
F0.7109276652336121
F0.14328183233737946
F-0.6833288073539734
F1.5754042863845825
F-2.186251640319824
F0.2652822434902191
F0.49062374234199524
F1.0348799228668213
F-0.31105929613113403
F-0.07652882486581802
F-0.2777107357978821
F-0.25967293977737427
I-1
I18
tp58
tp59
Rp60
ag1
(g2
g3
(F0.05129193142056465
F0.9044083952903748
F-0.04043655842542648
F-0.42163899540901184
F-0.9599028825759888
F-0.9005634188652039
F-1.5160647630691528
F-0.38130834698677063
F-0.11403195559978485
F1.200650691986084
F-0.1956557333469391
F-0.3975876271724701
F-0.13731706142425537
I-1
I19
tp61
tp62
Rp63
ag1
(g2
g3
(F0.053115114569664
F0.9162750840187073
F0.021297894418239594
F-0.3964407742023468
F-2.9681360721588135
F0.1733642816543579
F0.16289260983467102
F-0.4370432496070862
F1.089159607887268
F0.20104186236858368
F-0.19338324666023254
F-0.38204967975616455
F-0.18248878419399261
I-1
I20
tp64
tp65
Rp66
ag1
(g2
g3
(F0.08317071199417114
F0.9101399779319763
F0.08917973935604095
F-0.39594802260398865
F-0.6818219423294067
F0.2187415063381195
F-1.5858758687973022
F-0.6865493655204773
F1.698899745941162
F0.5727023482322693
F-0.1884869635105133
F-0.35640275478363037
F-0.23407305777072906
I-1
I21
tp67
tp68
Rp69
ag1
(g2
g3
(F0.07524529844522476
F0.9089959859848022
F0.11711864918470383
F-0.3928711414337158
F-0.2071063220500946
F-0.10238964110612869
F-0.023270372301340103
F0.02882513217628002
F0.974669337272644
F0.21773965656757355
F-0.18765762448310852
F-0.35458508133888245
F-0.24236911535263062
I-1
I22
tp70
tp71
Rp72
ag1
(g2
g3
(F0.07471869885921478
F0.8926565647125244
F0.13471192121505737
F-0.4235966205596924
F-0.2536470592021942
F-0.047704264521598816
F-0.037232596427202225
F-0.029033048078417778
F0.9739500284194946
F0.2435372918844223
F-0.1886557638645172
F-0.3463033437728882
F-0.2488175928592682
I-1
I23
tp73
tp74
Rp75
ag1
(g2
g3
(F0.07867089658975601
F0.8791463375091553
F0.14082218706607819
F-0.4484213888645172
F-0.07330167293548584
F-0.023270372301340103
F-0.0034905560314655304
F-0.015657255426049232
F0.9579200744628906
F0.2425696849822998
F-0.18962205946445465
F-0.34354883432388306
F-0.2543572783470154
I-1
I24
tp76
tp77
Rp78
ag1
(g2
g3
(F0.08082536607980728
F0.8716013431549072
F0.13929462432861328
F-0.46300679445266724
F-0.045377228409051895
F-0.015125742182135582
F-0.010471668094396591
F-0.003988421056419611
F0.9605889320373535
F0.23964998126029968
F-0.18781886994838715
F-0.3426376283168793
F-0.25526246428489685
I-1
I25
tp79
tp80
Rp81
ag1
(g2
g3
(F0.11920560151338577
F0.8331843018531799
F0.16193149983882904
F-0.5151427984237671
F-7.944505214691162
F-0.16289260983467102
F-0.5328915119171143
F-0.21390533447265625
F1.5431580543518066
F0.4223618507385254
F-0.17104633152484894
F-0.14408883452415466
F-0.42259982228279114
I-1
I26
tp82
tp83
Rp84
ag1
(g2
g3
(F0.20906998217105865
F0.7818769216537476
F0.23799768090248108
F-0.5369501113891602
F4.886778354644775
F-0.2408483624458313
F0.15125742554664612
F-0.4530605971813202
F1.158092737197876
F0.3841441571712494
F-0.15105389058589935
F-0.29800185561180115
F-0.39144858717918396
I-1
I27
tp85
tp86
Rp87
ag1
(g2
g3
(F0.06682967394590378
F0.8281501531600952
F-0.051342736929655075
F-0.5541346073150635
F-2.0745537281036377
F0.037232596427202225
F0.1722007542848587
F0.5713318586349487
F0.7042515873908997
F0.29219838976860046
F-0.19627617299556732
F-0.23840826749801636
F-0.23567473888397217
I-1
I28
tp88
tp89
Rp90
ag1
(g2
g3
(F0.11013364791870117
F0.8266587257385254
F0.06677916646003723
F-0.5477650761604309
F-0.3676718771457672
F-0.14078575372695923
F-0.10937075316905975
F-0.00934681762009859
F1.00527024269104
F0.2449973225593567
F-0.1605711132287979
F-0.18799488246440887
F-0.2795439064502716
I-1
I29
tp91
tp92
Rp93
ag1
(g2
g3
(F0.13036583364009857
F0.8115934729576111
F0.11072146147489548
F-0.5586246252059937
F-0.30367836356163025
F-0.033742040395736694
F-0.15591149032115936
F-0.04579043760895729
F0.9746684432029724
F0.3180469870567322
F-0.15789562463760376
F-0.18617568910121918
F-0.28413161635398865
I-1
I30
tp94
tp95
Rp96
ag1
(g2
g3
(F0.16474652290344238
F0.7638534903526306
F0.14653724431991577
F-0.6065585017204285
F-0.034905560314655304
F-0.026760928332805634
F0.08260982483625412
F-0.015411322936415672
F0.9564611911773682
F0.25231045484542847
F-0.16250838339328766
F-0.17602741718292236
F-0.2878369390964508
I-1
I31
tp97
tp98
Rp99
ag1
(g2
g3
(F0.17325401306152344
F0.755832314491272
F0.1418050080537796
F-0.6152981519699097
F-0.11751538515090942
F0.040723152458667755
F0.1849994659423828
F-0.019788328558206558
F0.9564627408981323
F0.24963071942329407
F-0.16164836287498474
F-0.17050892114639282
F-0.2905842959880829
I-1
I32
tp100
tp101
Rp102
ag1
(g2
g3
(F0.18561293184757233
F0.7458847761154175
F0.13996359705924988
F-0.624190628528595
F-0.7760669589042664
F0.16638316214084625
F0.21059687435626984
F-0.003029049374163151
F0.9916753768920898
F0.21748489141464233
F-0.16719602048397064
F-0.15944218635559082
F-0.29706454277038574
I-1
I33
tp103
tp104
Rp105
ag1
(g2
g3
(F0.26203271746635437
F0.6948594450950623
F0.23624852299690247
F-0.6266545653343201
F-5.719857692718506
F0.3769800364971161
F-0.5247468948364258
F0.04618433490395546
F1.5637764930725098
F0.20764759182929993
F-0.15100635588169098
F-0.09155132621526718
F-0.3862875998020172
I-1
I34
tp106
tp107
Rp108
ag1
(g2
g3
(F0.20642609894275665
F0.7581512331962585
F0.0902501568198204
F-0.611923098564148
F4.994985580444336
F-0.11053427308797836
F0.30484187602996826
F0.05919017642736435
F1.424808382987976
F0.5502959489822388
F-0.2266674041748047
F-0.42177703976631165
F-0.27611374855041504
I-1
I35
tp109
tp110
Rp111
ag1
(g2
g3
(F-0.018701467663049698
F0.7496930360794067
F-0.24127116799354553
F-0.6159535050392151
F-2.9250857830047607
F-0.988990843296051
F-0.6760043501853943
F-0.04059193655848503
F0.5412811040878296
F1.2344591617584229
F-0.25201886892318726
F-0.4152594804763794
F0.05600443854928017
I-1
I36
tp112
tp113
Rp114
ag1
(g2
g3
(F0.05063097923994064
F0.8356382846832275
F-0.006426442414522171
F-0.5469040870666504
F-0.2280496507883072
F-0.10471668094396591
F0.043050188571214676
F-0.020287318155169487
F0.986335277557373
F0.2279524952173233
F-0.22767646610736847
F-0.38524624705314636
F-0.05448002740740776
I-1
I37
tp115
tp116
Rp117
ag1
(g2
g3
(F0.0560302808880806
F0.9337315559387207
F0.08059030026197433
F-0.3442545533180237
F-0.5864133834838867
F0.0802827849984169
F0.046540744602680206
F0.015204624272882938
F1.0057533979415894
F0.2269836813211441
F-0.23427113890647888
F-0.3797556459903717
F-0.0803692638874054
I-1
I38
tp118
tp119
Rp120
ag1
(g2
g3
(F0.06470711529254913
F0.9309670329093933
F0.11099306493997574
F-0.3417512774467468
F-1.2798705101013184
F0.3060053884983063
F0.15358446538448334
F-0.016407471150159836
F0.985370934009552
F0.1863134503364563
F-0.23276874423027039
F-0.3724770247936249
F-0.11356902122497559
I-1
I39
tp121
tp122
Rp123
ag1
(g2
g3
(F0.09274155646562576
F0.9106265306472778
F0.17544935643672943
F-0.36245787143707275
F-3.218292474746704
F0.7399978637695312
F-0.2059427946805954
F-0.2731325328350067
F1.7348424196243286
F0.024415042251348495
F-0.2281225025653839
F-0.3413699269294739
F-0.19191114604473114
I-1
I40
tp124
tp125
Rp126
ag1
(g2
g3
(F0.016590820625424385
F0.9121460318565369
F-0.12482421845197678
F-0.39004284143447876
F2.7226336002349854
F-0.3118229806423187
F0.6143378615379333
F-0.36697906255722046
F0.8798864483833313
F1.1361777782440186
F-0.25129643082618713
F-0.39963197708129883
F0.04220528155565262
I-1
I41
tp127
tp128
Rp129
ag1
(g2
g3
(F0.05919881537556648
F0.9202457070350647
F-0.03193534165620804
F-0.3855170011520386
F-1.811598539352417
F0.16289260983467102
F-0.2862255871295929
F-0.5713779926300049
F1.244730830192566
F0.8131624460220337
F-0.2553958296775818
F-0.3849947452545166
F-0.005792944226413965
I-1
I42
tp130
tp131
Rp132
ag1
(g2
g3
(F0.044253405183553696
F0.9687197804450989
F0.09607149660587311
F-0.22448629140853882
F0.006981112062931061
F-0.024433892220258713
F0.017452780157327652
F-0.03899102658033371
F0.950394332408905
F0.2618025243282318
F-0.25118935108184814
F-0.3860395550727844
F-0.045453187078237534
I-1
I43
tp133
tp134
Rp135
ag1
(g2
g3
(F0.05818665772676468
F0.9528551697731018
F0.12898018956184387
F-0.2684127390384674
F-0.27808094024658203
F4.081623554229736
F1.0727641582489014
F-0.05254364013671875
F0.9030066728591919
F0.4651390016078949
F-0.2527727484703064
F-0.3705551326274872
F-0.11742836236953735
I-1
I44
tp136
tp137
Rp138
ag1
(g2
g3
(F0.10749544948339462
F0.7631217837333679
F0.10860645771026611
F-0.627928614616394
F0.20245224237442017
F7.187054634094238
F2.283987045288086
F-0.24618344008922577
F0.7143067121505737
F0.8172417879104614
F-0.14456044137477875
F-0.3327716290950775
F-0.28532707691192627
I-1
I45
tp139
tp140
Rp141
ag1
(g2
g3
(F0.13076119124889374
F0.6080242395401001
F0.08917845785617828
F-0.7779814600944519
F0.008144630119204521
F7.034633636474609
F1.9337680339813232
F-0.1509568840265274
F0.8461774587631226
F0.6258417367935181
F-0.07212834060192108
F-0.33406704664230347
F-0.3050161600112915
I-1
I46
tp142
tp143
Rp144
ag1
(g2
g3
(F0.14314191043376923
F0.19842040538787842
F0.05438636243343353
F-0.9680814743041992
F0.17801834642887115
F2.574866771697998
F0.553834855556488
F0.3361274302005768
F0.8840453028678894
F0.07611149549484253
F0.1065983772277832
F-0.37242650985717773
F-0.22142426669597626
I-1
I47
tp145
tp146
Rp147
ag1
(g2
g3
(F-0.05687439814209938
F-0.04957650229334831
F-0.04375586658716202
F-0.9961892366409302
F3.5720021724700928
F-0.008144630119204521
F0.9087080359458923
F-0.17358261346817017
F1.3002052307128906
F1.0078164339065552
F0.17845550179481506
F-0.4422628581523895
F-0.022522594779729843
I-1
I48
tp148
tp149
Rp150
ag1
(g2
g3
(F0.10317610949277878
F-0.024859661236405373
F0.0049117933958768845
F-0.9943403005599976
F-0.3560366928577423
F0.07330167293548584
F0.1279870569705963
F-0.046049565076828
F0.9720098972320557
F0.25181272625923157
F0.1951148957014084
F-0.42434483766555786
F-0.18941465020179749
I-1
I49
tp151
tp152
Rp153
ag1
(g2
g3
(F0.20700499415397644
F-0.08676005154848099
F-0.008558377623558044
F-0.9744477272033691
F-3.895460367202759
F0.6085202693939209
F-0.8493686318397522
F-0.26583391427993774
F1.3420668840408325
F0.6298577785491943
F0.21055546402931213
F-0.37670400738716125
F-0.2703896760940552
I-1
I50
tp154
tp155
Rp156
ag1
(g2
g3
(F0.35227131843566895
F-0.08840155601501465
F0.01557876169681549
F-0.9315832853317261
F-8.428528785705566
F-0.34789207577705383
F-1.392731785774231
F-0.22337836027145386
F1.7026646137237549
F0.6129973530769348
F0.2309384047985077
F-0.2674106955528259
F-0.3788526654243469
I-1
I51
tp157
tp158
Rp159
ag1
(g2
g3
(F0.535463809967041
F-0.08089340478181839
F0.012756690382957458
F-0.8405784368515015
F-2.8261866569519043
F1.0180788040161133
F2.1338932514190674
F-0.49880629777908325
F1.9858506917953491
F2.0059945583343506
F0.23243987560272217
F-0.13213908672332764
F-0.4532544016838074
I-1
I52
tp160
tp161
Rp162
ag1
(g2
g3
(F0.47146379947662354
F-0.11231332272291183
F-0.014536172151565552
F-0.8745834827423096
F3.5603671073913574
F-1.1181414127349854
F0.4898413419723511
F0.3825211524963379
F1.2676703929901123
F0.2730494439601898
F0.22687683999538422
F-0.24353329837322235
F-0.4175950884819031
I-1
I53
tp163
tp164
Rp165
ag1
(g2
g3
(F0.3581138551235199
F-0.0831877663731575
F-0.013209626078605652
F-0.9298708438873291
F4.545867443084717
F-0.48867782950401306
F0.4118855893611908
F-0.546136200428009
F0.6812497973442078
F0.09273038059473038
F0.19989027082920074
F-0.3381101191043854
F-0.3313046097755432
I-1
I54
tp166
tp167
Rp168
ag1
(g2
g3
(F0.23371611535549164
F-0.08911528438329697
F-0.0051509663462638855
F-0.9681987166404724
F4.853036403656006
F0.34789207577705383
F0.14660334587097168
F-0.004246420692652464
F1.3619266748428345
F0.5697727799415588
F0.2021215558052063
F-0.45278000831604004
F-0.1266581267118454
I-1
I55
tp169
tp170
Rp171
ag1
(g2
g3
(F-0.1782229095697403
F-0.12492340803146362
F-0.05525960028171539
F-0.9744625091552734
F-1.1972607374191284
F-0.41886672377586365
F-0.10820723325014114
F0.04222431406378746
F0.6306753754615784
F0.9592966437339783
F0.12035883218050003
F-0.33652251958847046
F0.13695478439331055
I-1
I56
tp172
tp173
Rp174
ag1
(g2
g3
(F0.009026123210787773
F-0.07301247864961624
F-0.039866458624601364
F-0.9964931011199951
F-2.320056200027466
F-0.31531354784965515
F-1.1611915826797485
F0.9934186339378357
F0.9423120021820068
F0.5786269307136536
F0.11794930696487427
F-0.2889924943447113
F-0.016176404431462288
I-1
I57
tp175
tp176
Rp177
ag1
(g2
g3
(F0.10442008078098297
F-0.1415594220161438
F-0.008331187069416046
F-0.9843719005584717
F0.032578520476818085
F-0.002327037276700139
F0.039559632539749146
F-0.056247979402542114
F0.9486950635910034
F0.28103578090667725
F0.11841342598199844
F-0.26421594619750977
F-0.0558006577193737
I-1
I58
tp178
tp179
Rp180
ag1
(g2
g3
(F0.37281644344329834
F-0.23268359899520874
F-0.11927449703216553
F-0.8903031945228577
F2.587665557861328
F-0.16405612230300903
F-0.020943336188793182
F0.43310385942459106
F0.9801897406578064
F0.04105209931731224
F0.18302421271800995
F-0.23576462268829346
F-0.3413335978984833
I-1
I59
tp181
tp182
Rp183
ag1
(g2
g3
(F-0.0939125120639801
F-0.22328528761863708
F-0.004931971430778503
F-0.9702060222625732
F4.363194942474365
F-0.11867889761924744
F0.8284252882003784
F-0.21039633452892303
F1.7931479215621948
F1.0834447145462036
F0.21117448806762695
F-0.3987346291542053
F0.11357051134109497
I-1
I60
tp184
tp185
Rp186
ag1
(g2
g3
(F-0.17742407321929932
F-0.2683003544807434
F-0.08412927389144897
F-0.9431107640266418
F-3.4789206981658936
F-2.057101011276245
F1.1286131143569946
F-0.3288571238517761
F0.47634461522102356
F-0.4195207953453064
F0.15318605303764343
F-0.37999266386032104
F0.13342981040477753
I-1
I61
tp187
tp188
Rp189
ag1
(g2
g3
(F0.0056123994290828705
F-0.22332127392292023
F-0.05586286634206772
F-0.9731266498565674
F-0.032578520476818085
F-0.029087966307997704
F0.19314409792423248
F-0.01710517890751362
F0.9457728862762451
F0.273984432220459
F0.17573872208595276
F-0.3951835036277771
F0.0025022535119205713
I-1
I62
tp190
tp191
Rp192
ag1
(g2
g3
(F0.19196182489395142
F-0.4979294240474701
F-0.12134622037410736
F-0.8369539976119995
F2.4410622119903564
F0.17918187379837036
F0.841223955154419
F0.34098950028419495
F0.859765887260437
F0.05054881423711777
F0.20175594091415405
F-0.33476728200912476
F-0.1088106632232666
I-1
I63
tp193
tp194
Rp195
ag1
(g2
g3
(F0.028971437364816666
F-0.4091995358467102
F-0.04748839884996414
F-0.9107477068901062
F1.4392725229263306
F-2.5353071689605713
F-1.1844619512557983
F-0.21403434872627258
F0.7494604587554932
F1.0741461515426636
F0.2391476333141327
F-0.3742743730545044
F0.000333267031237483
I-1
I64
tp196
tp197
Rp198
ag1
(g2
g3
(F0.05666859447956085
F-0.3613845705986023
F-0.021802496165037155
F-0.9304377436637878
F-0.9657204747200012
F-2.5155272483825684
F-1.180971384048462
F-0.21989840269088745
F0.028708605095744133
F1.2274501323699951
F0.2733405530452728
F-0.3468310534954071
F-0.019608700647950172
I-1
I65
tp199
tp200
Rp201
ag1
(g2
g3
(F0.09017793834209442
F-0.3238743543624878
F-0.015114359557628632
F-0.9416713714599609
F0.6387717127799988
F-0.20943336188793182
F4.74366569519043
F0.014220817014575005
F0.6360565423965454
F0.7910231351852417
F0.27755317091941833
F-0.33495405316352844
F-0.05184991657733917
I-1
I66
tp202
tp203
Rp204
ag1
(g2
g3
(F0.16486971080303192
F0.38903969526290894
F0.10055875778198242
F-0.9007519483566284
F0.11635186523199081
F0.0034905560314655304
F-0.016289260238409042
F-0.03218516334891319
F0.9516079425811768
F0.25595977902412415
F0.0696687176823616
F-0.26107797026634216
F-0.3460674285888672
I-1
I67
tp205
tp206
Rp207
ag1
(g2
g3
(F0.14794433116912842
F0.47206375002861023
F0.06182200089097023
F-0.866860032081604
F0.11751538515090942
F-2.345653533935547
F-0.10820723325014114
F-0.18583537638187408
F0.7809604406356812
F0.1210491731762886
F-0.0006296935025602579
F-0.3150636553764343
F-0.3172748386859894
I-1
I68
tp208
tp209
Rp210
ag1
(g2
g3
(F0.11055983603000641
F0.5357989072799683
F0.09305034577846527
F-0.8318880200386047
F-0.22688613831996918
F0.08610037714242935
F-0.5328915119171143
F0.5206580758094788
F1.1636943817138672
F0.3286243677139282
F-0.01510237343609333
F-0.31867632269859314
F-0.3137163817882538
I-1
I69
tp211
tp212
Rp213
ag1
(g2
g3
(F0.10831207036972046
F0.5380819439888
F0.11061769723892212
F-0.8285529613494873
F-0.22106854617595673
F-0.14427630603313446
F-0.2420118749141693
F0.0025733972433954477
F0.999192476272583
F0.2664303779602051
F0.00023860903456807137
F-0.31323400139808655
F-0.32095494866371155
I-1
I70
tp214
tp215
Rp216
ag1
(g2
g3
(F0.11244630813598633
F0.5404011011123657
F0.11214426159858704
F-0.826284646987915
F-0.2164144665002823
F-0.1140248253941536
F-0.06399352848529816
F-0.022478250786662102
F0.9996911883354187
F0.22989746928215027
F0.0001713267993181944
F-0.3049490451812744
F-0.3246261179447174
I-1
I71
tp217
tp218
Rp219
ag1
(g2
g3
(F0.12444213032722473
F0.5587006211280823
F0.12490954995155334
F-0.8104106187820435
F-0.39675986766815186
F-0.7923561930656433
F-1.6010016202926636
F0.37235358357429504
F1.136777639389038
F0.320799857378006
F-0.0027282186783850193
F-0.29114872217178345
F-0.3384612202644348
I-1
I72
tp220
tp221
Rp222
ag1
(g2
g3
(F0.062201887369155884
F0.8494880199432373
F0.04654817655682564
F-0.5218566060066223
F1.9861263036727905
F-2.232792377471924
F0.5596524477005005
F-0.5344616174697876
F0.8373554944992065
F0.2614559233188629
F-0.15551261603832245
F-0.3315364122390747
F-0.1847991943359375
I-1
I73
tp223
tp224
Rp225
ag1
(g2
g3
(F0.041706591844558716
F0.8908734321594238
F0.03211928531527519
F-0.45119109749794006
F0.872639000415802
F-0.7306897044181824
F0.07562871277332306
F-0.10299674421548843
F0.4850938022136688
F0.5287622809410095
F-0.1866806596517563
F-0.37827858328819275
F-0.13903512060642242
I-1
I74
tp226
tp227
Rp228
ag1
(g2
g3
(F0.08880668133497238
F0.8968511819839478
F0.21314914524555206
F-0.37727829813957214
F-0.3350933790206909
F-0.048867784440517426
F-0.8144630193710327
F-0.32280489802360535
F1.3093640804290771
F0.285039484500885
F-0.16751238703727722
F-0.36384642124176025
F-0.22560440003871918
I-1
I75
tp229
tp230
Rp231
ag1
(g2
g3
(F0.05787573754787445
F0.8945109844207764
F0.1804235726594925
F-0.40490472316741943
F-0.21990501880645752
F-0.044213708490133286
F0.006981112062931061
F-0.05188492313027382
F0.963756799697876
F0.2428029626607895
F-0.15767893195152283
F-0.3565535843372345
F-0.23934726417064667
I-1
I76
tp232
tp233
Rp234
ag1
(g2
g3
(F0.06222476065158844
F0.8741737604141235
F0.16027295589447021
F-0.45415958762168884
F-0.08493685722351074
F-0.016289260238409042
F0.06748408079147339
F-0.03291378915309906
F0.9477229118347168
F0.2552298307418823
F-0.15862184762954712
F-0.35379189252853394
F-0.24211740493774414
I-1
I77
tp235
tp236
Rp237
ag1
(g2
g3
(F0.067188560962677
F0.8659758567810059
F0.1540372371673584
F-0.4710031747817993
F-0.137295201420784
F-0.017452780157327652
F0.09075445681810379
F-0.021000634878873825
F0.9537898302078247
F0.26034536957740784
F-0.16139152646064758
F-0.350102961063385
F-0.24582388997077942
I-1
I78
tp238
tp239
Rp240
ag1
(g2
g3
(F0.07412418723106384
F0.8576892018318176
F0.15188996493816376
F-0.48559680581092834
F-0.21525095403194427
F0.0011635186383500695
F0.052358340471982956
F-0.015650587156414986
F0.9501458406448364
F0.2615649402141571
F-0.16510793566703796
F-0.3445764183998108
F-0.2532261312007904
I-1
I79
tp241
tp242
Rp243
ag1
(g2
g3
(F0.07969214022159576
F0.8519269227981567
F0.15247297286987305
F-0.4945923984050751
F-0.7027652859687805
F0.06981112062931061
F0.045377228409051895
F-0.03753672540187836
F0.9569526314735413
F0.2503567039966583
F-0.16610181331634521
F-0.3390618860721588
F-0.26060497760772705
I-1
I80
tp244
tp245
Rp246
ag1
(g2
g3
(F0.34662026166915894
F0.6741291284561157
F0.49149876832962036
F-0.4287578761577606
F-0.3641813397407532
F1.2728893756866455
F0.42003023624420166
F0.2963050603866577
F1.9859668016433716
F0.3800349533557892
F-0.18103621900081635
F0.06608030200004578
F-0.42213088274002075
I-1
I81
tp247
tp248
Rp249
ag1
(g2
g3
(F0.1909242868423462
F0.7880328893661499
F0.2877659201622009
F-0.5096496939659119
F4.8472185134887695
F-0.4107220768928528
F0.17452779412269592
F-0.14792494475841522
F1.2801342010498047
F0.5344433188438416
F-0.17308801412582397
F-0.289678156375885
F-0.4174630641937256
I-1
I82
tp250
tp251
Rp252
ag1
(g2
g3
(F-0.017484648153185844
F0.8412831425666809
F-0.13107705116271973
F-0.5241714119911194
F2.474804162979126
F-0.6073567271232605
F-0.023270372301340103
F-0.4404964745044708
F0.08860664814710617
F1.9364842176437378
F-0.27032601833343506
F-0.34445124864578247
F-0.03350751847028732
I-1
I83
tp253
tp254
Rp255
ag1
(g2
g3
(F0.0814097449183464
F0.8659738898277283
F0.018590277060866356
F-0.49306803941726685
F-2.034994125366211
F-0.2559741139411926
F-0.6352812051773071
F0.731684684753418
F1.3590936660766602
F0.47888579964637756
F-0.25108760595321655
F-0.17893283069133759
F-0.14090882241725922
I-1
I84
tp256
tp257
Rp258
ag1
(g2
g3
(F0.07774298638105392
F0.8696735501289368
F0.09759166836738586
F-0.47759804129600525
F-0.29320669174194336
F-0.12915056943893433
F-0.23852132260799408
F-0.07863412797451019
F1.0470428466796875
F0.3039013147354126
F-0.21871057152748108
F-0.14409896731376648
F-0.15715445578098297
I-1
I85
tp259
tp260
Rp261
ag1
(g2
g3
(F0.09505355358123779
F0.8698298931121826
F0.10324135422706604
F-0.47297149896621704
F0.020943336188793182
F-0.038396116346120834
F0.030251484364271164
F-0.02562853880226612
F0.9688501954078674
F0.241347536444664
F-0.21688377857208252
F-0.14502622187137604
F-0.15621808171272278
I-1
I86
tp262
tp263
Rp264
ag1
(g2
g3
(F0.15239861607551575
F0.8651825189590454
F0.10356467962265015
F-0.46637773513793945
F0.13031408190727234
F-0.013962224125862122
F0.040723152458667755
F-0.022471139207482338
F0.9489433765411377
F0.20896531641483307
F-0.21869121491909027
F-0.14317014813423157
F-0.15438251197338104
I-1
I87
tp265
tp266
Rp267
ag1
(g2
g3
(F0.1588369458913803
F0.8645995855331421
F0.1002844050526619
F-0.46602723002433777
F0.13147760927677155
F-0.020943336188793182
F-0.011635186150670052
F-0.05943121388554573
F0.9601238369941711
F0.20237909257411957
F-0.22052624821662903
F-0.13855405151844025
F-0.15438610315322876
I-1
I88
tp268
tp269
Rp270
ag1
(g2
g3
(F0.1627299040555954
F0.8646519184112549
F0.09608961641788483
F-0.46547046303749084
F0.07679223269224167
F-0.027924448251724243
F-0.024433892220258713
F-0.023936137557029724
F0.9664290547370911
F0.20116928219795227
F-0.21960294246673584
F-0.14039890468120575
F-0.15345993638038635
I-1
I89
tp271
tp272
Rp273
ag1
(g2
g3
(F0.1787412315607071
F0.8628526926040649
F0.1024571880698204
F-0.461561918258667
F-0.6259730458259583
F-0.018616298213601112
F0.017452780157327652
F-0.02126368321478367
F1.002119541168213
F0.22794923186302185
F-0.22238515317440033
F-0.1302538514137268
F-0.15530328452587128
I-1
I90
tp274
tp275
Rp276
ag1
(g2
g3
(F0.20355744659900665
F0.852316677570343
F0.1464080959558487
F-0.459004670381546
F-1.385750651359558
F0.32578521966934204
F0.17452779412269592
F0.060674361884593964
F1.017392635345459
F0.25621411204338074
F-0.21995754539966583
F-0.10913102328777313
F-0.17922745645046234
I-1
I91
tp277
tp278
Rp279
ag1
(g2
g3
(F0.2333661913871765
F0.8269187211990356
F0.19153359532356262
F-0.4744054079055786
F-5.497625350952148
F0.1489303857088089
F-0.12333297729492188
F-0.2548350393772125
F1.9620388746261597
F0.494594007730484
F-0.20783956348896027
F-0.08906510472297668
F-0.2381492257118225
I-1
I92
tp280
tp281
Rp282
ag1
(g2
g3
(F0.34493908286094666
F0.7475963234901428
F0.40844354033470154
F-0.39406928420066833
F-2.0210318565368652
F0.5154387354850769
F-0.18732650578022003
F0.9511823654174805
F1.985525131225586
F1.8617146015167236
F-0.23218798637390137
F0.07571471482515335
F-0.34961968660354614
I-1
I93
tp283
tp284
Rp285
ag1
(g2
g3
(F0.08151698112487793
F0.8534644246101379
F-0.17019511759281158
F-0.48578494787216187
F4.0292649269104
F0.3211311399936676
F1.7417874336242676
F-0.18589359521865845
F1.2501269578933716
F1.3119667768478394
F-0.2304236888885498
F-0.46432390809059143
F0.008982054889202118
I-1
I94
tp286
tp287
Rp288
ag1
(g2
g3
(F0.02837880328297615
F0.9447302222251892
F0.14487582445144653
F-0.2927291989326477
F-2.202540874481201
F0.7516330480575562
F-0.4712250530719757
F-0.2341460883617401
F1.233170747756958
F-0.12109828740358353
F-0.18797698616981506
F-0.38393139839172363
F-0.18798594176769257
I-1
I95
tp289
tp290
Rp291
ag1
(g2
g3
(F0.08235403895378113
F0.9017250537872314
F0.27684617042541504
F-0.32166123390197754
F-7.540764331817627
F-0.5270739197731018
F0.5282374620437622
F-0.29323700070381165
F1.6420457363128662
F0.23408982157707214
F-0.19996286928653717
F-0.31316083669662476
F-0.2811361253261566
I-1
I96
tp292
tp293
Rp294
ag1
(g2
g3
(F0.08183135092258453
F0.9040542244911194
F0.1246509701013565
F-0.4005641043186188
F4.43184232711792
F0.1943076103925705
F0.08610037714242935
F0.04681932181119919
F1.4158064126968384
F0.6559779047966003
F-0.3375489115715027
F-0.4210555851459503
F-0.18936984241008759
I-1
I97
tp295
tp296
Rp297
ag1
(g2
g3
(F0.04702882841229439
F0.9573346376419067
F0.11186742782592773
F-0.26226750016212463
F0.031415004283189774
F-0.019779816269874573
F-0.010471668094396591
F-0.04166356474161148
F0.9494224190711975
F0.26837679743766785
F-0.25780177116394043
F-0.39439719915390015
F-0.08061021566390991
I-1
I98
tp298
tp299
Rp300
ag1
(g2
g3
(F0.10788413882255554
F0.6865366697311401
F0.10981370508670807
F-0.7106120586395264
F-0.0011635186383500695
F6.485452651977539
F1.6254355907440186
F-0.17493011057376862
F0.7698750495910645
F0.9363254904747009
F-0.12299094349145889
F-0.332932710647583
F-0.31006601452827454
I-1
I99
tp301
tp302
Rp303
ag1
(g2
g3
(F0.12377014756202698
F0.38384002447128296
F0.09832160174846649
F-0.909769594669342
F-0.2292131781578064
F5.957215309143066
F1.1006885766983032
F0.6118710041046143
F0.9817950129508972
F0.3089577555656433
F0.07142329216003418
F-0.3355723023414612
F-0.28440073132514954
I-1
I100
tp304
tp305
Rp306
ag1
(g2
g3
(F0.12910525500774384
F0.09154120832681656
F0.006831467151641846
F-0.9873729348182678
F0.018616298213601112
F-0.06632056087255478
F0.06515704095363617
F-0.05091423913836479
F0.9496763348579407
F0.22186404466629028
F0.10839328914880753
F-0.3678264319896698
F-0.22139668464660645
I-1
I101
tp307
tp308
Rp309
ag1
(g2
g3
(F0.12371182441711426
F0.10183453559875488
F0.0064277686178684235
F-0.9870582222938538
F0.016289260238409042
F-0.07911926507949829
F0.030251484364271164
F-0.061857350170612335
F0.9623056650161743
F0.2250245064496994
F0.10750492662191391
F-0.36504796147346497
F-0.21770454943180084
I-1
I102
tp310
tp311
Rp312
ag1
(g2
g3
(F0.11750322580337524
F0.11783386766910553
F0.007949069142341614
F-0.9860248565673828
F-0.08959093689918518
F-0.038396116346120834
F-0.044213708490133286
F-0.05115397274494171
F0.9610847234725952
F0.2464562952518463
F0.10656651109457016
F-0.36689913272857666
F-0.22233304381370544
I-1
I103
tp313
tp314
Rp315
ag1
(g2
g3
(F0.11685630679130554
F0.1306731104850769
F0.01193559542298317
F-0.9844423532485962
F-0.012798705138266087
F-0.034905560314655304
F0.036069076508283615
F-0.0603938102722168
F0.9542896747589111
F0.2362278550863266
F0.10655824095010757
F-0.3632102906703949
F-0.22140027582645416
I-1
I104
tp316
tp317
Rp318
ag1
(g2
g3
(F0.11525149643421173
F0.13862250745296478
F0.01278970018029213
F-0.9835330843925476
F0.004654074553400278
F-0.037232596427202225
F0.026760928332805634
F-0.06379822641611099
F0.9547765254974365
F0.2342788428068161
F0.10654667764902115
F-0.3641367256641388
F-0.22324901819229126
I-1
I105
tp319
tp320
Rp321
ag1
(g2
g3
(F0.10852579027414322
F0.16159142553806305
F0.01859256438910961
F-0.9806961417198181
F-0.05817593261599541
F-0.024433892220258713
F-0.030251484364271164
F-0.0424063466489315
F0.9581730961799622
F0.2235691249370575
F0.10928496718406677
F-0.3659895956516266
F-0.22230727970600128
I-1
I106
tp322
tp323
Rp324
ag1
(g2
g3
(F0.34597599506378174
F0.12386640161275864
F0.0364970862865448
F-0.9293146133422852
F-6.353975296020508
F0.08842741698026657
F2.3444900512695312
F-0.5364566445350647
F1.0903775691986084
F0.3079174757003784
F0.11730623990297318
F-0.2005237489938736
F-0.36857569217681885
I-1
I107
tp325
tp326
Rp327
ag1
(g2
g3
(F0.03528424724936485
F-0.0647600069642067
F-0.05982087180018425
F-0.9954810738563538
F-0.3129865229129791
F-0.14078575372695923
F-0.6329541206359863
F-0.2750990092754364
F1.0893479585647583
F0.28046682476997375
F0.20013919472694397
F-0.4232921600341797
F-0.13121284544467926
I-1
I108
tp328
tp329
Rp330
ag1
(g2
g3
(F0.09801022708415985
F-0.06991042196750641
F0.0025398749858140945
F-0.9927235841751099
F-0.08842741698026657
F-0.05817593261599541
F0.0570124126970768
F-0.08470948785543442
F0.9729922413825989
F0.2435234636068344
F0.2063620239496231
F-0.4150545001029968
F-0.14221492409706116
I-1
I109
tp331
tp332
Rp333
ag1
(g2
g3
(F0.5542256832122803
F-0.12981022894382477
F-0.07423882186412811
F-0.8188233375549316
F2.5597410202026367
F1.3822600841522217
F-0.8074819445610046
F0.3020114302635193
F0.9018360376358032
F-0.21635596454143524
F0.20627857744693756
F-0.16427455842494965
F-0.45171791315078735
I-1
I110
tp334
tp335
Rp336
ag1
(g2
g3
(F0.26967620849609375
F-0.10599340498447418
F-0.018668733537197113
F-0.9569177627563477
F4.750646591186523
F0.029087966307997704
F0.29087966680526733
F-0.41611817479133606
F1.2420982122421265
F0.41262805461883545
F0.18167385458946228
F-0.3949839770793915
F-0.26145514845848083
I-1
I111
tp337
tp338
Rp339
ag1
(g2
g3
(F-0.10504280030727386
F-0.12673646211624146
F-0.02708422765135765
F-0.9859870076179504
F-3.143827438354492
F-1.5067566633224487
F-0.10471668094396591
F-0.3560783267021179
F1.3279813528060913
F-0.5239125490188599
F0.11301340907812119
F-0.3383624255657196
F0.1258094757795334
I-1
I112
tp340
tp341
Rp342
ag1
(g2
g3
(F0.06501920521259308
F-0.09958621114492416
F-0.0025476254522800446
F-0.9928991198539734
F-0.275753915309906
F-0.11635186523199081
F-0.06515704095363617
F-0.015671879053115845
F0.9584167003631592
F0.18485772609710693
F0.1064467579126358
F-0.31007522344589233
F0.007669862825423479
I-1
I113
tp343
tp344
Rp345
ag1
(g2
g3
(F0.09066907316446304
F-0.3540264964103699
F-0.052713606506586075
F-0.9293361306190491
F-0.4142126441001892
F0.048867784440517426
F-0.025597410276532173
F-0.056740738451480865
F0.9919161200523376
F0.2970990538597107
F0.10085777193307877
F-0.31101828813552856
F-0.009919730946421623
I-1
I114
tp346
tp347
Rp348
ag1
(g2
g3
(F0.3954770267009735
F-0.32216817140579224
F-0.18061953783035278
F-0.8409411907196045
F4.472565650939941
F-1.4229832887649536
F-0.28273501992225647
F-0.16904447972774506
F0.8336297273635864
F0.23159687221050262
F0.15966758131980896
F-0.27065545320510864
F-0.33147233724594116
I-1
I115
tp349
tp350
Rp351
ag1
(g2
g3
(F0.19604302942752838
F-0.3136173188686371
F-0.10850216448307037
F-0.922734260559082
F4.919356822967529
F0.9994624853134155
F-0.06050296872854233
F-0.22838656604290009
F1.2738304138183594
F0.5850743055343628
F0.18413452804088593
F-0.4483187198638916
F-0.21265004575252533
I-1
I116
tp352
tp353
Rp354
ag1
(g2
g3
(F0.04152292758226395
F-0.33075159788131714
F-0.04335581138730049
F-0.9418065547943115
F-0.3420744836330414
F-0.2059427946805954
F0.13147760927677155
F-0.12750530242919922
F1.1152795553207397
F0.36158785223960876
F0.2012774497270584
F-0.39802470803260803
F0.016560936346650124
I-1
I117
tp355
tp356
Rp357
ag1
(g2
g3
(F0.08235549181699753
F-0.35037094354629517
F-0.018596090376377106
F-0.932797908782959
F-0.15474797785282135
F-0.020943336188793182
F-0.008144630119204521
F-0.05843915045261383
F0.9482122659683228
F0.26861631870269775
F0.2038556933403015
F-0.39715832471847534
F-3.055681008845568e-05
I-1
I118
tp358
tp359
Rp360
ag1
(g2
g3
(F0.11157804727554321
F-0.40984344482421875
F-0.020490121096372604
F-0.9050739407539368
F-0.039559632539749146
F-0.006981112062931061
F0.022106854245066643
F-0.06913826614618301
F0.9472448229789734
F0.26203903555870056
F0.19840693473815918
F-0.3980582654476166
F-0.001002884702757001
I-1
I119
tp361
tp362
Rp363
ag1
(g2
g3
(F0.20636780560016632
F-0.537036657333374
F-0.10451030731201172
F-0.8112221956253052
F3.0775067806243896
F0.033742040395736694
F0.4037409722805023
F-0.13479821383953094
F1.0710933208465576
F0.3226328492164612
F0.20294909179210663
F-0.34483471512794495
F-0.08021063357591629
I-1
I120
tp364
tp365
Rp366
ag1
(g2
g3
(F0.06727657467126846
F-0.500745952129364
F-0.012661617249250412
F-0.8628829717636108
F2.5760302543640137
F-3.7825992107391357
F-0.6783313751220703
F0.48554128408432007
F1.0140423774719238
F0.7287310361862183
F0.23038966953754425
F-0.3873400092124939
F-0.07639449834823608
I-1
I121
tp367
tp368
Rp369
ag1
(g2
g3
(F-0.0035043517127633095
F-0.22737474739551544
F0.07165706902742386
F-0.9711610078811646
F1.1879525184631348
F-4.507471084594727
F-0.9447771310806274
F0.388882577419281
F0.765856921672821
F0.9133346676826477
F0.28316590189933777
F-0.33890125155448914
F-0.141353577375412
I-1
I122
tp370
tp371
Rp372
ag1
(g2
g3
(F0.13434293866157532
F0.33681783080101013
F0.07053009420633316
F-0.9292637705802917
F0.004654074553400278
F0.002327037276700139
F-0.006981112062931061
F-0.07036234438419342
F0.9717729687690735
F0.2522936761379242
F0.0788542851805687
F-0.395820677280426
F-0.4026537239551544
I-1
I123
tp373
tp374
Rp375
ag1
(g2
g3
(F0.12966807186603546
F0.3561592698097229
F0.06854081898927689
F-0.9228428602218628
F0.10471668094396591
F0.06050296872854233
F0.07446519285440445
F-0.008599712513387203
F0.9421321153640747
F0.2542629837989807
F0.07622222602367401
F-0.4022407829761505
F-0.3953084647655487
I-1
I124
tp376
tp377
Rp378
ag1
(g2
g3
(F0.042683959007263184
F0.9143626093864441
F0.12080854177474976
F-0.3840888738632202
F1.2798705101013184
F-0.6748408079147339
F0.1279870569705963
F0.18724097311496735
F1.1383483409881592
F-0.03988529369235039
F-0.26151442527770996
F-0.3891528248786926
F-0.19509369134902954
I-1
I125
tp379
tp380
Rp381
ag1
(g2
g3
(F0.03878045082092285
F0.9240284562110901
F0.08864595741033554
F-0.36987778544425964
F1.4404361248016357
F-1.007607102394104
F0.2606281638145447
F0.050416916608810425
F1.1014342308044434
F0.15465179085731506
F-0.24925640225410461
F-0.39644601941108704
F-0.14423660933971405
I-1
I126
tp382
tp383
Rp384
ag1
(g2
g3
(F0.04168054088950157
F0.9536052942276001
F0.08903027325868607
F-0.28455832600593567
F-1.269398808479309
F0.23619428277015686
F0.0034905560314655304
F-0.05800982192158699
F1.4292157888412476
F0.5086253881454468
F-0.20179186761379242
F-0.32181891798973083
F-0.07255221158266068
I-1
I127
tp385
tp386
Rp387
ag1
(g2
g3
(F0.05381833761930466
F0.948712170124054
F0.12966866791248322
F-0.28325754404067993
F-1.0716006755828857
F-0.025597410276532173
F-0.8354063630104065
F-0.017860794439911842
F1.0232418775558472
F0.24474824965000153
F-0.1965697705745697
F-0.31545162200927734
F-0.0955682173371315
I-1
I128
tp388
tp389
Rp390
ag1
(g2
g3
(F0.03781873360276222
F0.9483882784843445
F0.1513909250497818
F-0.27606186270713806
F-0.1733642816543579
F-0.13031408190727234
F0.037232596427202225
F-0.04048442095518112
F1.0201005935668945
F0.19165797531604767
F-0.1839987188577652
F-0.30447474122047424
F-0.10558535158634186
I-1
I129
tp391
tp392
Rp393
ag1
(g2
g3
(F0.04195905476808548
F0.9467788934707642
F0.13709044456481934
F-0.28819310665130615
F-0.23386724293231964
F-0.041886672377586365
F-0.046540744602680206
F-0.059179309755563736
F0.9630306363105774
F0.24012266099452972
F-0.18317294120788574
F-0.30542680621147156
F-0.11573494970798492
I-1
I130
tp394
tp395
Rp396
ag1
(g2
g3
(F0.04833206906914711
F0.9406619668006897
F0.13706400990486145
F-0.3066474199295044
F-0.10238964110612869
F-0.004654074553400278
F0.055848896503448486
F-0.04969397559762001
F0.9601123332977295
F0.25035303831100464
F-0.1850547194480896
F-0.3008250594139099
F-0.12127763032913208
I-1
I131
tp397
tp398
Rp399
ag1
(g2
g3
(F0.06256892532110214
F0.9303467273712158
F0.14417964220046997
F-0.331289142370224
F-0.7597776651382446
F0.11635186523199081
F0.07679223269224167
F-0.038045208901166916
F1.0154811143875122
F0.21868908405303955
F-0.18616974353790283
F-0.2925792634487152
F-0.14157383143901825
I-1
I132
tp400
tp401
Rp402
ag1
(g2
g3
(F0.07279906421899796
F0.9238073229789734
F0.1622522920370102
F-0.3390493392944336
F-1.3252477645874023
F0.5887404084205627
F0.14660334587097168
F0.002821891102939844
F1.0560004711151123
F0.3428816795349121
F-0.18372514843940735
F-0.2825254201889038
F-0.16921952366828918
I-1
I133
tp403
tp404
Rp405
ag1
(g2
g3
(F0.21281962096691132
F0.783964216709137
F0.49403053522109985
F-0.3099061846733093
F0.9855002760887146
F1.2461284399032593
F-0.779557466506958
F0.20035962760448456
F0.7438245415687561
F-0.4637575149536133
F-0.17196862399578094
F-0.05826397240161896
F-0.3799182176589966
I-1
I134
tp406
tp407
Rp408
ag1
(g2
g3
(F0.1849120706319809
F0.829189121723175
F0.39877820014953613
F-0.34529536962509155
F3.3148646354675293
F-0.8132995367050171
F-0.38279762864112854
F0.5211207866668701
F1.1054432392120361
F0.17838996648788452
F-0.14559398591518402
F-0.11096537113189697
F-0.4001389443874359
I-1
I135
tp409
tp410
Rp411
ag1
(g2
g3
(F0.03148411959409714
F0.8985149264335632
F-0.07808932662010193
F-0.43079203367233276
F-4.6377854347229
F-1.1006885766983032
F0.44330060482025146
F-0.4754018783569336
F0.9946826100349426
F0.3315716087818146
F-0.15843428671360016
F-0.44637566804885864
F-0.05312300845980644
I-1
I136
tp412
tp413
Rp414
ag1
(g2
g3
(F-0.011139139533042908
F0.9325811862945557
F0.12577375769615173
F-0.3381555378437042
F-0.11169779300689697
F-0.022106854245066643
F0.012798705138266087
F-0.054802313446998596
F0.9698270559310913
F0.2493758648633957
F-0.11648612469434738
F-0.4246325194835663
F-0.1247074082493782
I-1
I137
tp415
tp416
Rp417
ag1
(g2
g3
(F-0.0124000059440732
F0.9329603910446167
F0.13083340227603912
F-0.33513250946998596
F-0.05933944880962372
F-0.022106854245066643
F0.0570124126970768
F-0.08032148331403732
F0.9487037062644958
F0.2664191424846649
F-0.11650571972131729
F-0.4237156808376312
F-0.12655137479305267
I-1
I138
tp418
tp419
Rp420
ag1
(g2
g3
(F-0.012571406550705433
F0.933657705783844
F0.13324114680290222
F-0.3322230577468872
F-0.0570124126970768
F-0.012798705138266087
F0.07213815301656723
F-0.05698532983660698
F0.9552565217018127
F0.25570935010910034
F-0.11651375144720078
F-0.42187243700027466
F-0.12654657661914825
I-1
I139
tp421
tp422
Rp423
ag1
(g2
g3
(F-0.011547801084816456
F0.9341613054275513
F0.13494554162025452
F-0.33015012741088867
F-0.05933944880962372
F-0.008144630119204521
F0.07911926507949829
F-0.03947394713759422
F0.9469929337501526
F0.27178695797920227
F-0.12106301635503769
F-0.42093318700790405
F-0.1275063157081604
I-1
I140
tp424
tp425
Rp426
ag1
(g2
g3
(F-0.010003970935940742
F0.9346904158592224
F0.1367175579071045
F-0.327966570854187
F-0.10122612118721008
F0.012798705138266087
F0.06515704095363617
F-0.04725918546319008
F0.9533110857009888
F0.25766023993492126
F-0.11924827098846436
F-0.41909557580947876
F-0.12656275928020477
I-1
I141
tp427
tp428
Rp429
ag1
(g2
g3
(F-0.004430449567735195
F0.931445837020874
F0.1481146514415741
F-0.33234208822250366
F-0.6585515737533569
F0.068647600710392
F0.031415004283189774
F-0.046528417617082596
F0.9722471833229065
F0.2815207839012146
F-0.12123159319162369
F-0.41267937421798706
F-0.1431788057088852
I-1
I142
tp430
tp431
Rp432
ag1
(g2
g3
(F0.2001727819442749
F0.7852526307106018
F0.4417179524898529
F-0.38496020436286926
F2.2176666259765625
F1.6231085062026978
F-0.5864133834838867
F0.3059599995613098
F0.8374522924423218
F-0.04612920060753822
F-0.1797800362110138
F-0.0701153501868248
F-0.3440154194831848
I-1
I143
tp433
tp434
Rp435
ag1
(g2
g3
(F0.06710678339004517
F0.8820000290870667
F0.15446923673152924
F-0.4401271641254425
F4.748319625854492
F0.436319500207901
F0.012798705138266087
F-0.03995881974697113
F1.234451413154602
F0.5561516284942627
F-0.19794225692749023
F-0.15678715705871582
F-0.3905557692050934
I-1
I144
tp436
tp437
Rp438
ag1
(g2
g3
(F-0.053182605654001236
F0.8950144648551941
F-0.0867455005645752
F-0.4342762529850006
F-2.7633566856384277
F-0.9820097088813782
F0.8167901039123535
F-0.5294809937477112
F1.5633227825164795
F-0.49965018033981323
F-0.2069557160139084
F-0.5087642669677734
F-0.02878093719482422
I-1
I145
tp439
tp440
Rp441
ag1
(g2
g3
(F0.012037732638418674
F0.9106006026268005
F0.024966297671198845
F-0.4123571813106537
F-1.2449649572372437
F-0.18965353071689606
F-0.28389856219291687
F-0.5989418029785156
F1.1561886072158813
F0.36852315068244934
F-0.24699383974075317
F-0.484910249710083
F-0.1370658427476883
I-1
I146
tp442
tp443
Rp444
ag1
(g2
g3
(F0.03584347292780876
F0.9155770540237427
F0.08742277324199677
F-0.39088499546051025
F-0.08959093689918518
F-0.06399352848529816
F-0.3199676275253296
F-0.027593400329351425
F0.9695940613746643
F0.16318020224571228
F-0.2481352984905243
F-0.483132541179657
F-0.1638410985469818
I-1
I147
tp445
tp446
Rp447
ag1
(g2
g3
(F0.03283483907580376
F0.9158266186714172
F0.1057671383023262
F-0.38600102066993713
F-0.6515704393386841
F-0.046540744602680206
F-0.11984241753816605
F-0.06429670006036758
F0.9725093841552734
F0.20286253094673157
F-0.24283838272094727
F-0.483202189207077
F-0.18133479356765747
I-1
I148
tp448
tp449
Rp450
ag1
(g2
g3
(F0.1726229041814804
F0.8255451917648315
F0.36634132266044617
F-0.3930274546146393
F4.524923801422119
F-1.5183918476104736
F-0.599212110042572
F0.04562953859567642
F0.8267865777015686
F0.18757690489292145
F-0.21168197691440582
F-0.3179822266101837
F-0.3818683624267578
I-1
I149
tp451
tp452
Rp453
ag1
(g2
g3
(F0.057925544679164886
F0.9250380396842957
F-0.014414463192224503
F-0.37515532970428467
F-1.7068818807601929
F-0.4014139175415039
F-0.44213709235191345
F0.22126652300357819
F1.5493874549865723
F0.30875104665756226
F-0.3824482560157776
F-0.44995659589767456
F-0.04121173545718193
I-1
I150
tp454
tp455
Rp456
ag1
(g2
g3
(F0.055852435529232025
F0.9312358498573303
F0.05201328918337822
F-0.35633543133735657
F-0.1943076103925705
F-0.0802827849984169
F-0.15358446538448334
F-0.09153291583061218
F0.9798039197921753
F0.1872696429491043
F-0.364408940076828
F-0.46945080161094666
F-0.06418581306934357
I-1
I151
tp457
tp458
Rp459
ag1
(g2
g3
(F0.06420277804136276
F0.9614697098731995
F0.08879698812961578
F-0.25212931632995605
F-0.13264112174510956
F-0.009308149106800556
F-0.023270372301340103
F-0.052617281675338745
F0.9601173996925354
F0.22746233642101288
F-0.3699546754360199
F-0.4731491804122925
F-0.0780898705124855
I-1
I152
tp460
tp461
Rp462
ag1
(g2
g3
(F0.06466113030910492
F0.9622353315353394
F0.09452398866415024
F-0.24695654213428497
F-0.2280496507883072
F0.036069076508283615
F-0.006981112062931061
F-0.04337450861930847
F0.9521002769470215
F0.23501501977443695
F-0.36818644404411316
F-0.473171591758728
F-0.08361338824033737
I-1
I153
tp463
tp464
Rp465
ag1
(g2
g3
(F0.09116795659065247
F0.942738950252533
F0.18545007705688477
F-0.2618011236190796
F-3.111248731613159
F0.388615220785141
F0.11053427308797836
F-0.23583166301250458
F1.4188905954360962
F0.1240803673863411
F-0.3567609488964081
F-0.4302474558353424
F-0.21263697743415833
I-1
I154
tp466
tp467
Rp468
ag1
(g2
g3
(F0.06742962449789047
F0.927898645401001
F0.0294802226126194
F-0.36549726128578186
F2.7936081886291504
F-0.5433632135391235
F-0.275753915309906
F0.5117535591125488
F1.2323358058929443
F0.7588911652565002
F-0.2089666873216629
F-0.4398858845233917
F-0.12369654327630997
I-1
I155
tp469
tp470
Rp471
ag1
(g2
g3
(F-0.14001581072807312
F0.8321208953857422
F0.014196041971445084
F0.536440908908844
F0.760941207408905
F0.549180805683136
F-0.7760669589042664
F0.205205500125885
F0.577769935131073
F-0.6914063692092896
F0.1328178346157074
F-0.48615673184394836
F0.030509445816278458
I-1
I156
tp472
tp473
Rp474
ag1
(g2
g3
(F-0.169891819357872
F0.6501006484031677
F0.10201285779476166
F0.7335524559020996
F-0.47471559047698975
F-1.3415369987487793
F-1.8593027591705322
F0.13511668145656586
F0.9712111353874207
F0.38919809460639954
F0.18251533806324005
F-0.45442700386047363
F-0.08529115468263626
I-1
I157
tp475
tp476
Rp477
ag1
(g2
g3
(F-0.1543261706829071
F0.13233593106269836
F-0.006149087101221085
F0.9790979623794556
F-0.08144630491733551
F-0.05003130063414574
F-0.032578520476818085
F-0.06380338966846466
F0.9810014963150024
F0.23914401233196259
F0.1788686066865921
F-0.32457709312438965
F-0.12744267284870148
I-1
I158
tp478
tp479
Rp480
ag1
(g2
g3
(F-0.14241252839565277
F0.13107366859912872
F-0.007170628756284714
F0.9810642004013062
F-0.032578520476818085
F-0.025597410276532173
F0.002327037276700139
F-0.058938730508089066
F0.9584195017814636
F0.22551299631595612
F0.1761421263217926
F-0.32364344596862793
F-0.12746365368366241
I-1
I159
tp481
tp482
Rp483
ag1
(g2
g3
(F-0.13314376771450043
F0.12901046872138977
F-0.0075194984674453735
F0.9826355576515198
F-0.036069076508283615
F-0.027924448251724243
F0.012798705138266087
F-0.05699659138917923
F0.9630342125892639
F0.21845081448554993
F0.17613811790943146
F-0.32272180914878845
F-0.1274612545967102
I-1
I160
tp484
tp485
Rp486
ag1
(g2
g3
(F-0.5216715931892395
F0.14255860447883606
F0.06708468496799469
F0.8384720683097839
F1.9965980052947998
F0.22106854617595673
F-0.28157150745391846
F0.5366315841674805
F0.9969512820243835
F-0.12353778630495071
F0.19697308540344238
F-0.12618502974510193
F-0.35200169682502747
I-1
I161
tp487
tp488
Rp489
ag1
(g2
g3
(F-0.16513489186763763
F0.09533801674842834
F0.02883254364132881
F0.9812287092208862
F4.592408180236816
F0.7562870979309082
F0.09424500912427902
F-0.2447073608636856
F1.2857545614242554
F0.4728098511695862
F0.17881327867507935
F-0.3507174253463745
F-0.25490114092826843
I-1
I162
tp490
tp491
Rp492
ag1
(g2
g3
(F0.21128511428833008
F0.10917782038450241
F0.045134082436561584
F0.9702586531639099
F-2.7179794311523438
F-1.0041165351867676
F-1.3159395456314087
F-0.20645567774772644
F0.8090941309928894
F0.3302136957645416
F0.17118661105632782
F-0.4927070438861847
F0.057592153549194336
I-1
I163
tp493
tp494
Rp495
ag1
(g2
g3
(F-0.11565161496400833
F0.13436496257781982
F0.013366490602493286
F0.9840691089630127
F-0.877293050289154
F0.2187415063381195
F0.05003130063414574
F-0.0851961225271225
F0.9797906279563904
F0.24863576889038086
F0.18826432526111603
F-0.45740947127342224
F-0.15817515552043915
I-1
I164
tp496
tp497
Rp498
ag1
(g2
g3
(F-0.3685550093650818
F0.14717620611190796
F0.0737745463848114
F0.9149118661880493
F3.587127923965454
F-1.5160647630691528
F-0.14543983340263367
F0.3407122790813446
F1.1559916734695435
F0.20219887793064117
F0.21669895946979523
F-0.29771432280540466
F-0.3615160286426544
I-1
I165
tp499
tp500
Rp501
ag1
(g2
g3
(F0.13990741968154907
F0.17321373522281647
F0.0791817307472229
F0.9716753959655762
F-2.894834280014038
F-2.558577537536621
F0.5910674929618835
F-0.6299552917480469
F1.3845188617706299
F0.04849964752793312
F0.1667969971895218
F-0.3397311270236969
F0.04688096046447754
I-1
I166
tp502
tp503
Rp504
ag1
(g2
g3
(F-0.03036518022418022
F0.10341998189687729
F0.0009530046954751015
F0.9941736459732056
F-1.5137377977371216
F-0.5887404084205627
F-2.315402030944824
F-0.33552977442741394
F0.4609483778476715
F0.102809377014637
F0.20171065628528595
F-0.2544929087162018
F-0.0725979134440422
I-1
I167
tp505
tp506
Rp507
ag1
(g2
g3
(F-0.10974659770727158
F0.0986400693655014
F-0.025675661861896515
F0.9887197613716125
F-0.29204317927360535
F-0.1256600171327591
F0.24782946705818176
F-0.1335543543100357
F0.9304981827735901
F0.2985525131225586
F0.1905742585659027
F-0.24621495604515076
F-0.09759572893381119
I-1
I168
tp508
tp509
Rp510
ag1
(g2
g3
(F-0.14022105932235718
F0.12549898028373718
F-0.04126477614045143
F0.9812672138214111
F-0.006981112062931061
F-0.004654074553400278
F0.08377334475517273
F-0.10632327198982239
F0.938503086566925
F0.30854177474975586
F0.18241438269615173
F-0.24433079361915588
F-0.09581468999385834
I-1
I169
tp511
tp512
Rp513
ag1
(g2
g3
(F-0.1557258516550064
F0.17357231676578522
F-0.02719009667634964
F0.9720508456230164
F-0.3420744836330414
F0.09308148920536041
F0.14427630603313446
F-0.05625934898853302
F0.965455949306488
F0.25205492973327637
F0.1751357764005661
F-0.2507644295692444
F-0.10143289715051651
I-1
I170
tp514
tp515
Rp516
ag1
(g2
g3
(F-0.16818754374980927
F0.1805644929409027
F-0.02019813284277916
F0.9688659906387329
F-0.8807836174964905
F0.35254615545272827
F-0.032578520476818085
F-0.017361260950565338
F0.9855997562408447
F0.26107069849967957
F0.17686504125595093
F-0.2507987916469574
F-0.11157231777906418
I-1
I171
tp517
tp518
Rp519
ag1
(g2
g3
(F-0.3133118450641632
F0.21143439412117004
F-0.016242481768131256
F0.9256713390350342
F-6.699540138244629
F0.15125742554664612
F-0.8028278350830078
F-0.21161864697933197
F1.677770972251892
F-0.022555997595191002
F0.21775180101394653
F-0.21341052651405334
F-0.1932787299156189
I-1
I172
tp520
tp521
Rp522
ag1
(g2
g3
(F-0.20158952474594116
F0.19522617757320404
F0.03102944791316986
F0.9593151211738586
F3.953636407852173
F-0.18150891363620758
F-0.016289260238409042
F0.2561565637588501
F1.2623121738433838
F0.5177462100982666
F0.2529587745666504
F-0.4665587842464447
F-0.023792428895831108
I-1
I173
tp523
tp524
Rp525
ag1
(g2
g3
(F0.20824560523033142
F0.19618992507457733
F0.009145408868789673
F0.9581543207168579
F1.471851110458374
F0.8540226817131042
F0.4898413419723511
F-0.4772855341434479
F-0.6036956310272217
F1.928084373474121
F0.1667720377445221
F-0.35606682300567627
F0.14284086227416992
I-1
I174
tp526
tp527
Rp528
ag1
(g2
g3
(F-0.0029496019706130028
F0.174283966422081
F0.013312949799001217
F0.9846010208129883
F-0.7190545201301575
F-0.3001877963542938
F0.5061306357383728
F-0.027876293286681175
F1.1648247241973877
F0.19431211054325104
F0.2468620389699936
F-0.3043130040168762
F-0.016954774037003517
I-1
I175
tp529
tp530
Rp531
ag1
(g2
g3
(F-0.12694253027439117
F0.26556557416915894
F-0.05223448947072029
F0.9542703628540039
F0.013962224125862122
F-0.017452780157327652
F0.033742040395736694
F-0.09636392444372177
F0.9431204199790955
F0.2773740887641907
F0.2530421316623688
F-0.2970113456249237
F-0.033498313277959824
I-1
I176
tp532
tp533
Rp534
ag1
(g2
g3
(F-0.1951545625925064
F0.4010586738586426
F0.0091872438788414
F0.8949760794639587
F2.193232536315918
F-0.2990242838859558
F-0.25946465134620667
F0.05804181843996048
F0.8787303566932678
F0.28838321566581726
F0.25960633158683777
F-0.2788005769252777
F-0.1063193529844284
I-1
I177
tp535
tp536
Rp537
ag1
(g2
g3
(F-0.1805611550807953
F-0.39491257071495056
F-0.14788644015789032
F0.8885782361030579
F1.0099341869354248
F-0.8005008101463318
F-0.06981112062931061
F0.13623131811618805
F1.1244858503341675
F0.13591870665550232
F0.07352691888809204
F-0.28068703413009644
F-0.4365506172180176
I-1
I178
tp538
tp539
Rp540
ag1
(g2
g3
(F-0.1547725349664688
F-0.41121214628219604
F-0.12977339327335358
F0.888880729675293
F0.388615220785141
F-0.045377228409051895
F0.26644575595855713
F-0.2330184429883957
F0.9560332298278809
F0.2274177223443985
F0.07099755108356476
F-0.2981497645378113
F-0.4227718114852905
I-1
I179
tp541
tp542
Rp543
ag1
(g2
g3
(F-0.15564313530921936
F-0.4195694625377655
F-0.1117248386144638
F0.8872734904289246
F0.026760928332805634
F-0.040723152458667755
F0.06166648864746094
F-0.019778970628976822
F0.9559701085090637
F0.28640079498291016
F0.06556864082813263
F-0.30181217193603516
F-0.42282816767692566
I-1
I180
tp544
tp545
Rp546
ag1
(g2
g3
(F-0.15984252095222473
F-0.4203530251979828
F-0.10867460072040558
F0.8865346312522888
F0.032578520476818085
F-0.008144630119204521
F0.031415004283189774
F-0.027314428240060806
F0.9445597529411316
F0.28153088688850403
F0.06103116646409035
F-0.30179211497306824
F-0.4228671193122864
I-1
I181
tp547
tp548
Rp549
ag1
(g2
g3
(F-0.16335515677928925
F-0.42054519057273865
F-0.10744012892246246
F0.8859533071517944
F0.11053427308797836
F-0.008144630119204521
F-0.05468537658452988
F-0.049192920327186584
F0.94334876537323
F0.29297056794166565
F0.06107838824391365
F-0.30546897649765015
F-0.41918399930000305
I-1
I182
tp550
tp551
Rp552
ag1
(g2
g3
(F-0.15902328491210938
F-0.42249035835266113
F-0.10837951302528381
F0.8857015371322632
F0.06981112062931061
F0.009308149106800556
F-0.11286130547523499
F-0.05016776919364929
F0.9431079626083374
F0.28347349166870117
F0.0629325583577156
F-0.30731064081192017
F-0.41548049449920654
I-1
I183
tp553
tp554
Rp555
ag1
(g2
g3
(F-0.15444709360599518
F-0.4227760434150696
F-0.11093506217002869
F0.8860586881637573
F0.018616298213601112
F0.015125742182135582
F-0.09540852904319763
F-0.06475859880447388
F0.9518541693687439
F0.2798154950141907
F0.06749765574932098
F-0.3100908100605011
F-0.413602352142334
I-1
I184
tp556
tp557
Rp558
ag1
(g2
g3
(F-0.1534537822008133
F-0.42324310541152954
F-0.11385072022676468
F0.8856382966041565
F-0.10471668094396591
F-0.05003130063414574
F0.05352185666561127
F-0.06524764746427536
F0.9620534777641296
F0.278595894575119
F0.07017693668603897
F-0.30734753608703613
F-0.41726452112197876
I-1
I185
tp559
tp560
Rp561
ag1
(g2
g3
(F-0.15607954561710358
F-0.42612162232398987
F-0.11169371008872986
F0.8840724229812622
F-0.08377334475517273
F-0.9610664248466492
F-0.05933944880962372
F0.07115103304386139
F0.9654169678688049
F0.29372718930244446
F0.06292098760604858
F-0.3082370460033417
F-0.41732925176620483
I-1
I186
tp562
tp563
Rp564
ag1
(g2
g3
(F-0.15795128047466278
F-0.4973774254322052
F-0.12429453432559967
F0.8439300656318665
F-0.2164144665002823
F-4.9286651611328125
F-1.7196805477142334
F-0.08394012600183487
F0.9530532360076904
F0.3833021819591522
F0.0002142186276614666
F-0.307064950466156
F-0.4280194640159607
I-1
I187
tp565
tp566
Rp567
ag1
(g2
g3
(F-0.08274498581886292
F-0.8323452472686768
F-0.20655164122581482
F0.5076326727867126
F0.1279870569705963
F-2.273515462875366
F-0.20012520253658295
F-0.12767796218395233
F1.106184482574463
F-0.3343619704246521
F-0.20078255236148834
F-0.3601953387260437
F-0.2951139509677887
I-1
I188
tp568
tp569
Rp570
ag1
(g2
g3
(F-0.07931073009967804
F-0.8915120959281921
F-0.16851748526096344
F0.4129381477832794
F1.7185170650482178
F-0.49682244658470154
F0.40490448474884033
F0.2528303563594818
F1.2148524522781372
F-0.18696342408657074
F-0.2091071754693985
F-0.3783813416957855
F-0.2158461958169937
I-1
I189
tp571
tp572
Rp573
ag1
(g2
g3
(F-0.010410652495920658
F-0.9445700645446777
F-0.07566732913255692
F0.3193017542362213
F1.1763173341751099
F-1.3322288990020752
F0.08144630491733551
F-0.4491387605667114
F0.9847180843353271
F0.3422945439815521
F-0.18920595943927765
F-0.33575454354286194
F-0.09371229261159897
I-1
I190
tp574
tp575
Rp576
ag1
(g2
g3
(F-0.03382948413491249
F-0.9437886476516724
F-0.1977221667766571
F0.2627250552177429
F-2.5411248207092285
F0.14194928109645844
F0.6504068970680237
F-0.2763524055480957
F1.844443440437317
F0.8627982139587402
F-0.17047278583049774
F-0.3599327802658081
F-0.14438602328300476
I-1
I191
tp577
tp578
Rp579
ag1
(g2
g3
(F-0.03631505370140076
F-0.9351546764373779
F-0.22634939849376678
F0.27006101608276367
F-0.13496816158294678
F-0.09889908134937286
F-0.11751538515090942
F-0.0701378583908081
F0.9810129404067993
F0.18703129887580872
F-0.16097527742385864
F-0.34536054730415344
F-0.19411373138427734
I-1
I192
tp580
tp581
Rp582
ag1
(g2
g3
(F-0.03016149066388607
F-0.934287965297699
F-0.19300630688667297
F0.29823625087738037
F-0.18616297841072083
F-0.09773556888103485
F-0.06515704095363617
F-0.05846226215362549
F0.9810060262680054
F0.20846310257911682
F-0.1564614325761795
F-0.3435421884059906
F-0.1959163397550583
I-1
I193
tp583
tp584
Rp585
ag1
(g2
g3
(F-0.030673932284116745
F-0.9297491312026978
F-0.181950643658638
F0.31862130761146545
F-0.18150891363620758
F-0.06981112062931061
F-0.06515704095363617
F-0.05359300225973129
F0.9729877710342407
F0.22721613943576813
F-0.15646521747112274
F-0.3444662392139435
F-0.19684192538261414
I-1
I194
tp586
tp587
Rp588
ag1
(g2
g3
(F-0.03401309996843338
F-0.9180877804756165
F-0.16823039948940277
F0.35729047656059265
F-0.1361316740512848
F-0.039559632539749146
F0.018616298213601112
F-0.05627233535051346
F0.9712926745414734
F0.20603041350841522
F-0.15743525326251984
F-0.34263575077056885
F-0.20330718159675598
I-1
I195
tp589
tp590
Rp591
ag1
(g2
g3
(F-0.0382264144718647
F-0.9098011255264282
F-0.1623898446559906
F0.3800398111343384
F-0.12449649721384048
F-0.029087966307997704
F0.006981112062931061
F-0.06307588517665863
F0.9618225693702698
F0.21309229731559753
F-0.1556674987077713
F-0.33896690607070923
F-0.20697474479675293
I-1
I196
tp592
tp593
Rp594
ag1
(g2
g3
(F-0.042390987277030945
F-0.9004572629928589
F-0.15814223885536194
F0.4029523432254791
F-0.23154020309448242
F0.034905560314655304
F0.06981112062931061
F-0.05577702075242996
F0.9635165333747864
F0.23452268540859222
F-0.15758445858955383
F-0.3334531784057617
F-0.21620775759220123
I-1
I197
tp595
tp596
Rp597
ag1
(g2
g3
(F-0.056533828377723694
F-0.8820053935050964
F-0.15848906338214874
F0.44017231464385986
F-1.0041165351867676
F0.14543983340263367
F0.025597410276532173
F-0.030251819640398026
F0.9885199069976807
F0.2452387809753418
F-0.159552201628685
F-0.3270321786403656
F-0.23097744584083557
I-1
I198
tp598
tp599
Rp600
ag1
(g2
g3
(F-0.1016632467508316
F-0.8426759839057922
F-0.22627662122249603
F0.4778708517551422
F-2.4608418941497803
F0.936632513999939
F-0.6643691658973694
F-0.16060738265514374
F1.4073877334594727
F0.49983736872673035
F-0.1449296623468399
F-0.27843692898750305
F-0.30087965726852417
I-1
I199
tp601
tp602
Rp603
ag1
(g2
g3
(F-0.17757225036621094
F-0.7799596190452576
F-0.399899423122406
F0.4474499821662903
F-8.970728874206543
F-0.21408742666244507
F0.9121986031532288
F-0.41864049434661865
F1.2382831573486328
F0.04687619209289551
F-0.1455181986093521
F-0.12478485703468323
F-0.398328572511673
I-1
I200
tp604
tp605
Rp606
ag1
(g2
g3
(F-0.21594767272472382
F-0.7571812868118286
F-0.4098874032497406
F0.46047309041023254
F2.3852131366729736
F0.10122612118721008
F0.6096837520599365
F0.41848158836364746
F1.057425618171692
F-0.021304883062839508
F-0.12883344292640686
F-0.059510137885808945
F-0.4303215742111206
I-1
I201
tp607
tp608
Rp609
ag1
(g2
g3
(F-0.18369895219802856
F-0.8065667152404785
F-0.313154935836792
F0.46651771664619446
F4.096749305725098
F-1.5905300378799438
F-0.6445893049240112
F-0.07959448546171188
F0.7998770475387573
F0.11254944652318954
F-0.17111529409885406
F-0.15333859622478485
F-0.435548335313797
I-1
I202
tp610
tp611
Rp612
ag1
(g2
g3
(F-0.017853254452347755
F-0.872170090675354
F-0.043832629919052124
F0.48690786957740784
F3.848919630050659
F0.7260356545448303
F0.47704264521598816
F-0.04078303277492523
F1.7363636493682861
F0.6656349897384644
F-0.14526419341564178
F-0.46254390478134155
F-0.22105814516544342
I-1
I203
tp613
tp614
Rp615
ag1
(g2
g3
(F0.04057851806282997
F-0.8604714274406433
F0.1285703182220459
F0.49133700132369995
F-3.41260027885437
F-1.1123237609863281
F-0.6981111764907837
F-1.0271748304367065
F0.9771199226379395
F-1.098941445350647
F-0.14676901698112488
F-0.35695168375968933
F-0.022324081510305405
I-1
I204
tp616
tp617
Rp618
ag1
(g2
g3
(F-0.01303105242550373
F-0.8926975131034851
F-0.12483125180006027
F0.4328262209892273
F-0.006981112062931061
F-0.013962224125862122
F0.0570124126970768
F-0.062328118830919266
F0.9482123851776123
F0.27299851179122925
F-0.09430747479200363
F-0.2846156358718872
F-0.11214669793844223
I-1
I205
tp619
tp620
Rp621
ag1
(g2
g3
(F-0.13836383819580078
F-0.8089374303817749
F-0.37619879841804504
F0.43005821108818054
F-9.950411796569824
F-0.9680474996566772
F1.0809087753295898
F-0.3532787263393402
F1.6935226917266846
F0.32879021763801575
F-0.11905822157859802
F-0.14210817217826843
F-0.28275826573371887
I-1
I206
tp622
tp623
Rp624
ag1
(g2
g3
(F-0.23781900107860565
F-0.730770468711853
F-0.48569560050964355
F0.41655293107032776
F1.7906551361083984
F1.3613168001174927
F-0.7376708388328552
F0.17171631753444672
F0.7311717867851257
F-0.2930617928504944
F-0.15264727175235748
F-0.02042997069656849
F-0.32888126373291016
I-1
I207
tp625
tp626
Rp627
ag1
(g2
g3
(F-0.06887827813625336
F-0.8656518459320068
F-0.2003345489501953
F0.4536173343658447
F4.975205898284912
F0.841223955154419
F-0.08260982483625412
F-0.05313727632164955
F1.5527855157852173
F0.6681020855903625
F-0.1942620575428009
F-0.4256943464279175
F-0.3090774118900299
I-1
I208
tp628
tp629
Rp630
ag1
(g2
g3
(F0.019982848316431046
F-0.8659266233444214
F0.0758514478802681
F0.4939822554588318
F4.081623554229736
F-0.6946206092834473
F1.6312531232833862
F0.0740489661693573
F1.1002362966537476
F1.3140089511871338
F-0.20815570652484894
F-0.4756275415420532
F-0.04624283313751221
I-1
I209
tp631
tp632
Rp633
ag1
(g2
g3
(F-0.013811562210321426
F-0.886850893497467
F0.09862998872995377
F0.4511948525905609
F-3.125211000442505
F-2.3817226886749268
F-0.19663465023040771
F-0.4516279101371765
F1.4304605722427368
F-0.42314308881759644
F-0.2020791620016098
F-0.47914862632751465
F0.026725657284259796
I-1
I210
tp634
tp635
Rp636
ag1
(g2
g3
(F0.01870890147984028
F-0.9395130276679993
F-0.13202854990959167
F0.3154897093772888
F0.011635186150670052
F0.0
F0.06050296872854233
F-0.06353846937417984
F0.9375260472297668
F0.2837146818637848
F-0.14246423542499542
F-0.4880886375904083
F-0.11771339923143387
I-1
I211
tp637
tp638
Rp639
ag1
(g2
g3
(F-0.10858717560768127
F-0.8439263701438904
F-0.42571502923965454
F0.3078373074531555
F-5.133444309234619
F-0.5224198698997498
F2.32936429977417
F0.07461905479431152
F1.892695665359497
F-0.48641151189804077
F-0.20894813537597656
F-0.19461169838905334
F-0.4239821135997772
I-1
I212
tp640
tp641
Rp642
ag1
(g2
g3
(F-0.06728803366422653
F-0.8969582319259644
F-0.2278415411710739
F0.3728623688220978
F4.716904640197754
F0.7783939838409424
F-0.1489303857088089
F-0.14110299944877625
F1.2886191606521606
F0.5997041463851929
F-0.18480058014392853
F-0.3711670935153961
F-0.23500344157218933
I-1
I213
tp643
tp644
Rp645
ag1
(g2
g3
(F0.02723577246069908
F-0.9105969071388245
F0.05397240072488785
F0.4088503122329712
F4.158415794372559
F-0.29437020421028137
F1.0390220880508423
F-0.057805657386779785
F1.2433291673660278
F1.140812873840332
F-0.2572481036186218
F-0.36746397614479065
F-0.0011470485478639603
I-1
I214
tp646
tp647
Rp648
ag1
(g2
g3
(F-0.05356748774647713
F-0.9351662993431091
F-0.09059140086174011
F0.3382127583026886
F-0.8563497066497803
F0.002327037276700139
F-1.1390846967697144
F-0.7988434433937073
F1.6505882740020752
F0.6525545716285706
F-0.18323427438735962
F-0.37253063917160034
F-0.05037195235490799
I-1
I215
tp649
tp650
Rp651
ag1
(g2
g3
(F-0.027450110763311386
F-0.9416837692260742
F-0.11531165987253189
F0.31493079662323
F-0.28040799498558044
F-0.10006260126829147
F0.013962224125862122
F-0.049700409173965454
F0.9521052837371826
F0.21699367463588715
F-0.17430739104747772
F-0.37261635065078735
F-0.06783448904752731
I-1
I216
tp652
tp653
Rp654
ag1
(g2
g3
(F-0.02513330802321434
F-0.9476523399353027
F-0.17088955640792847
F0.26855167746543884
F-0.8796200752258301
F2.1013145446777344
F0.5654700398445129
F0.05466717109084129
F0.9347927570343018
F0.4588286578655243
F-0.17587123811244965
F-0.358048677444458
F-0.13796570897102356
I-1
I217
tp655
tp656
Rp657
ag1
(g2
g3
(F-0.04835379123687744
F-0.8989499807357788
F-0.20316869020462036
F0.3850627839565277
F-1.3776060342788696
F4.48303747177124
F1.4462536573410034
F0.03254536911845207
F0.8673012256622314
F0.4052637815475464
F-0.15301184356212616
F-0.3343852162361145
F-0.21247845888137817
I-1
I218
tp658
tp659
Rp660
ag1
(g2
g3
(F-0.07474896311759949
F-0.8294742703437805
F-0.2219792604446411
F0.5070604681968689
F-1.1344306468963623
F5.497625350952148
F2.0745537281036377
F-0.22928199172019958
F0.7610067129135132
F0.39450374245643616
F-0.11632919311523438
F-0.31440848112106323
F-0.26380443572998047
I-1
I219
tp661
tp662
Rp663
ag1
(g2
g3
(F-0.11281844228506088
F-0.7158478498458862
F-0.2140752673149109
F0.654985249042511
F-0.6236459612846375
F6.079384803771973
F3.3846757411956787
F-0.04694429785013199
F0.9197520613670349
F0.5106735825538635
F-0.05871942639350891
F-0.2963528633117676
F-0.30941689014434814
I-1
I220
tp664
tp665
Rp666
ag1
(g2
g3
(F-0.14237093925476074
F-0.5821852087974548
F-0.1768207550048828
F0.7807211875915527
F0.2897161543369293
F6.280673503875732
F3.17291522026062
F-0.41235285997390747
F0.7707584500312805
F0.4265991151332855
F-0.011592320166528225
F-0.2947351038455963
F-0.3154692053794861
I-1
I221
tp667
tp668
Rp669
ag1
(g2
g3
(F-0.152717724442482
F-0.42184606194496155
F-0.1389145404100418
F0.8828510046005249
F-0.161729097366333
F6.7751688957214355
F2.538797616958618
F-0.3136003315448761
F0.7840559482574463
F0.6063318252563477
F0.058508969843387604
F-0.3125092685222626
F-0.2973743677139282
I-1
I222
tp670
tp671
Rp672
ag1
(g2
g3
(F-0.15959326922893524
F-0.20521272718906403
F-0.10294989496469498
F0.9601141214370728
F-0.2292131781578064
F5.9991021156311035
F1.6556869745254517
F0.035487446933984756
F0.9248223900794983
F0.558664858341217
F0.11517374962568283
F-0.3347834050655365
F-0.26094484329223633
I-1
I223
tp673
tp674
Rp675
ag1
(g2
g3
(F-0.11261549592018127
F-0.13923989236354828
F-0.013146549463272095
F0.9837464094161987
F-1.364807367324829
F0.4118855893611908
F0.006981112062931061
F-0.08891122043132782
F1.0048502683639526
F0.0017109108157455921
F0.10553528368473053
F-0.37431609630584717
F-0.2408236712217331
I-1
I224
tp676
tp677
Rp678
ag1
(g2
g3
(F-0.10829751193523407
F0.03243040665984154
F-0.01504376158118248
F0.9934754967689514
F-0.045377228409051895
F-0.008144630119204521
F0.022106854245066643
F-0.1022026389837265
F0.9501653909683228
F0.26982247829437256
F0.17448031902313232
F-0.3946480453014374
F-0.14612756669521332
I-1
I225
tp679
tp680
Rp681
ag1
(g2
g3
(F-0.12694303691387177
F0.0754043310880661
F-0.0004641227424144745
F0.9890396595001221
F-0.7621046900749207
F0.08842741698026657
F0.0
F-0.11340241879224777
F0.9984946250915527
F0.2537388205528259
F0.16525663435459137
F-0.3891165852546692
F-0.16096200048923492
I-1
I226
tp682
tp683
Rp684
ag1
(g2
g3
(F-0.14153042435646057
F0.066910021007061
F0.0017788335680961609
F0.987668514251709
F4.571464538574219
F0.3444015085697174
F-0.06050296872854233
F0.08401332795619965
F1.4471205472946167
F0.6671827435493469
F0.1672573685646057
F-0.4712013900279999
F-0.1814698576927185
I-1
I227
tp685
tp686
Rp687
ag1
(g2
g3
(F-0.046740639954805374
F0.07304292917251587
F-0.0031001707538962364
F0.996228039264679
F3.894296884536743
F0.2652822434902191
F0.3118229806423187
F0.1732502430677414
F1.5478490591049194
F0.7981943488121033
F0.1682017743587494
F-0.48383063077926636
F-0.0762607604265213
I-1
I228
tp688
tp689
Rp690
ag1
(g2
g3
(F0.05715367943048477
F0.07938086986541748
F0.012278074398636818
F0.9951288104057312
F4.261968612670898
F-0.07562871277332306
F1.3368829488754272
F-0.034480683505535126
F1.3494329452514648
F1.1821951866149902
F0.15304453670978546
F-0.4926243722438812
F0.05835950747132301
I-1
I229
tp691
tp692
Rp693
ag1
(g2
g3
(F0.14500650763511658
F0.07597525417804718
F0.029309168457984924
F0.986073911190033
F2.982098340988159
F-0.10937075316905975
F0.5631430149078369
F-0.413744181394577
F0.5160829424858093
F1.415541410446167
F0.1474103182554245
F-0.4729952812194824
F0.15344302356243134
I-1
I230
tp694
tp695
Rp696
ag1
(g2
g3
(F0.18015067279338837
F0.08915843814611435
F0.044768501073122025
F0.9785665273666382
F-0.9936448931694031
F-0.06166648864746094
F-0.4270113408565521
F-0.12963923811912537
F0.6110294461250305
F1.0559306144714355
F0.1358684003353119
F-0.429490327835083
F0.20607581734657288
I-1
I231
tp697
tp698
Rp699
ag1
(g2
g3
(F-0.03682967275381088
F0.033891379833221436
F-0.0034935923758894205
F0.9987406134605408
F-0.24433891475200653
F-0.06399352848529816
F-0.019779816269874573
F-0.1214093267917633
F0.9440999031066895
F0.26616618037223816
F0.17428164184093475
F-0.421828031539917
F0.031035739928483963
I-1
I232
tp700
tp701
Rp702
ag1
(g2
g3
(F-0.07894927263259888
F0.352165162563324
F0.027065668255090714
F0.932209312915802
F-0.19198057055473328
F0.022106854245066643
F0.048867784440517426
F-0.06233443692326546
F0.9542868137359619
F0.25376009941101074
F0.1615462750196457
F-0.42731836438179016
F0.024450000375509262
I-1
I233
tp703
tp704
Rp705
ag1
(g2
g3
(F-0.3365232050418854
F0.3563127815723419
F0.20743104815483093
F0.8466201424598694
F3.6837000846862793
F-0.40955856442451477
F-0.7318532466888428
F0.6821073293685913
F0.9482946991920471
F0.1643369197845459
F0.13250724971294403
F-0.25667238235473633
F-0.3168991804122925
I-1
I234
tp706
tp707
Rp708
ag1
(g2
g3
(F-0.23868872225284576
F0.34678784012794495
F0.15845715999603271
F0.8931164741516113
F4.292220115661621
F-0.6934571266174316
F-0.19198057055473328
F-0.4318770468235016
F0.883472204208374
F0.24223564565181732
F0.1266496181488037
F-0.31832319498062134
F-0.29034218192100525
I-1
I235
tp709
tp710
Rp711
ag1
(g2
g3
(F0.20279476046562195
F0.40573880076408386
F0.017628535628318787
F0.891032874584198
F-2.2723519802093506
F-0.7935197353363037
F-0.9017269611358643
F-0.3542473316192627
F1.2254271507263184
F-0.10968206077814102
F0.18829528987407684
F-0.3891814351081848
F0.20294050872325897
I-1
I236
tp712
tp713
Rp714
ag1
(g2
g3
(F0.1365375518798828
F0.3779600262641907
F0.025208406150341034
F0.9153513312339783
F-4.024610996246338
F-0.9249973297119141
F-0.7516330480575562
F-0.7192899584770203
F1.0997064113616943
F1.2850751876831055
F0.21398362517356873
F-0.40610283613204956
F0.12003696709871292
I-1
I237
tp715
tp716
Rp717
ag1
(g2
g3
(F-0.0810278058052063
F0.3770909905433655
F-0.0031885188072919846
F0.9226195216178894
F-0.22223205864429474
F-0.041886672377586365
F-0.022106854245066643
F-0.09733431041240692
F0.9562295079231262
F0.29855671525001526
F0.24852615594863892
F-0.40282949805259705
F0.021570000797510147
I-1
I238
tp718
tp719
Rp720
ag1
(g2
g3
(F-0.10644747316837311
F0.4000634551048279
F-0.007968772202730179
F0.9102497696876526
F-0.047704264521598816
F-0.030251484364271164
F0.030251484364271164
F-0.09928319603204727
F0.9501632452011108
F0.2773720324039459
F0.24666018784046173
F-0.40006861090660095
F0.01694570668041706
I-1
I239
tp721
tp722
Rp723
ag1
(g2
g3
(F-0.13338392972946167
F0.4614037275314331
F0.00026263296604156494
F0.8771061897277832
F-0.24317540228366852
F0.037232596427202225
F0.023270372301340103
F-0.10027048736810684
F0.969840407371521
F0.23767592012882233
F0.2457139641046524
F-0.40192222595214844
F0.01139402948319912
I-1
I240
tp724
tp725
Rp726
ag1
(g2
g3
(F0.01347323227673769
F0.3819137513637543
F-0.07433931529521942
F0.9211048483848572
F1.898862361907959
F-3.936183452606201
F-0.39443281292915344
F0.09650284051895142
F1.1654168367385864
F0.751737654209137
F0.2473447471857071
F-0.36443331837654114
F-0.09834285080432892
I-1
I241
tp727
tp728
Rp729
ag1
(g2
g3
(F-0.10841982066631317
F-0.38034090399742126
F-0.0642269179224968
F0.9162209630012512
F-0.07097464054822922
F-0.024433892220258713
F-0.06283000856637955
F-0.08326216042041779
F0.9875677824020386
F0.21210826933383942
F0.06376778334379196
F-0.4417901933193207
F-0.3862888514995575
I-1
I242
tp730
tp731
Rp732
ag1
(g2
g3
(F0.01687912829220295
F-0.9135065078735352
F-0.12606164813041687
F0.3864317536354065
F0.9633934497833252
F-0.20361575484275818
F0.3071689307689667
F-0.07464521378278732
F1.2659021615982056
F-0.05799530819058418
F-0.17120592296123505
F-0.5056860446929932
F-0.19924047589302063
I-1
I243
tp733
tp734
Rp735
ag1
(g2
g3
(F-0.019286390393972397
F-0.9512879252433777
F-0.11972282826900482
F0.28345322608947754
F-0.2408483624458313
F-0.06981112062931061
F-0.004654074553400278
F-0.11120045930147171
F0.9579382538795471
F0.2693317234516144
F-0.24492153525352478
F-0.5171389579772949
F-0.12328647822141647
I-1
I244
tp736
tp737
Rp738
ag1
(g2
g3
(F-0.05456535518169403
F-0.9206016063690186
F-0.23281586170196533
F0.30872642993927
F-4.657565116882324
F0.21059687435626984
F0.0
F-0.25513768196105957
F1.7552297115325928
F0.057289525866508484
F-0.24937596917152405
F-0.4382946193218231
F-0.28742989897727966
I-1
I245
tp739
tp740
Rp741
ag1
(g2
g3
(F-0.15565824508666992
F-0.8107733726501465
F-0.4788278341293335
F0.29856473207473755
F1.4392725229263306
F0.7586141228675842
F0.13264112174510956
F0.33339253067970276
F0.8938032984733582
F-0.15498201549053192
F-0.20607852935791016
F-0.1567414402961731
F-0.3869331479072571
I-1
I246
tp742
tp743
Rp744
ag1
(g2
g3
(F-0.1415599137544632
F-0.8511914610862732
F-0.39337825775146484
F0.31731271743774414
F4.5761189460754395
F0.45377227663993835
F0.018616298213601112
F0.07790962606668472
F1.5585803985595703
F0.6739782094955444
F-0.1364680826663971
F-0.35497933626174927
F-0.30562451481819153
I-1
I247
tp745
tp746
Rp747
ag1
(g2
g3
(F0.018378907814621925
F-0.9252429604530334
F0.11570340394973755
F0.36083289980888367
F1.2461284399032593
F0.4211937487125397
F0.5503442883491516
F-0.7634764313697815
F-0.41058972477912903
F2.006385564804077
F-0.16723890602588654
F-0.4887036383152008
F-0.04315625876188278
I-1
I248
tp748
tp749
Rp750
ag1
(g2
g3
(F0.019828369840979576
F-0.9265827536582947
F0.13891726732254028
F0.3489316999912262
F-2.6737658977508545
F-1.310122013092041
F-0.5456902384757996
F-0.31117528676986694
F1.3407115936279297
F0.15378455817699432
F-0.17838503420352936
F-0.49611714482307434
F-0.07742664963006973
I-1
I249
tp751
tp752
Rp753
ag1
(g2
g3
(F-0.016615284606814384
F-0.9391881227493286
F-0.13348844647407532
F0.31595951318740845
F-0.005817593075335026
F-0.013962224125862122
F0.15591149032115936
F-0.04628342017531395
F0.953551173210144
F0.27080994844436646
F-0.188871830701828
F-0.4835916757583618
F-0.23810455203056335
I-1
I250
tp754
tp755
Rp756
ag1
(g2
g3
(F-0.10166475921869278
F-0.8575642704963684
F-0.2503977417945862
F0.4376627802848816
F-4.556338787078857
F-0.7213815450668335
F0.8470415472984314
F-0.35928064584732056
F1.5089484453201294
F0.4535010755062103
F-0.2040872871875763
F-0.3769739270210266
F-0.37272772192955017
I-1
I251
tp757
tp758
Rp759
ag1
(g2
g3
(F-0.33351391553878784
F-0.7224742770195007
F-0.4932287931442261
F0.35146066546440125
F0.8877646923065186
F2.028012990951538
F0.23619428277015686
F-0.38487210869789124
F1.9862624406814575
F-0.3012339472770691
F-0.28334271907806396
F-0.04598042741417885
F-0.4528457224369049
I-1
I252
tp760
tp761
Rp762
ag1
(g2
g3
(F0.021049531176686287
F-0.8740272521972656
F0.023373957723379135
F0.4848577082157135
F4.8925957679748535
F0.5677971243858337
F0.9203432202339172
F0.16210825741291046
F1.985807180404663
F1.3900805711746216
F-0.18722091615200043
F-0.5701151490211487
F-0.1949326992034912
I-1
I253
tp763
tp764
Rp765
ag1
(g2
g3
(F0.055810827761888504
F-0.8587706685066223
F0.16203434765338898
F0.4828486740589142
F2.5446152687072754
F-0.08260982483625412
F0.3316028118133545
F-0.14679399132728577
F-0.08627275377511978
F1.7746574878692627
F-0.20007887482643127
F-0.5270879864692688
F0.023846974596381187
I-1
I254
tp766
tp767
Rp768
ag1
(g2
g3
(F0.024133728817105293
F-0.8859937787055969
F0.09378450363874435
F0.4534721076488495
F-4.773917198181152
F-1.4136751890182495
F-0.46191689372062683
F-1.4213138818740845
F1.2565573453903198
F1.0033711194992065
F-0.2115326225757599
F-0.5355191230773926
F-0.04735307767987251
I-1
I255
tp769
tp770
Rp771
ag1
(g2
g3
(F0.008519988507032394
F-0.9056011438369751
F-0.08795039355754852
F0.41482362151145935
F-0.26760929822921753
F-0.12216945737600327
F-0.06981112062931061
F-0.10806118696928024
F0.9734920859336853
F0.1991986781358719
F-0.18876130878925323
F-0.5543340444564819
F-0.15428753197193146
I-1
I256
tp772
tp773
Rp774
ag1
(g2
g3
(F0.0062211062759160995
F-0.9115191698074341
F-0.10623780637979507
F0.3972499966621399
F-0.14194928109645844
F-0.046540744602680206
F-0.008144630119204521
F-0.08859667927026749
F0.9586666226387024
F0.24109013378620148
F-0.18975830078125
F-0.5552804470062256
F-0.16537590324878693
I-1
I257
tp775
tp776
Rp777
ag1
(g2
g3
(F0.002322728745639324
F-0.9175761342048645
F-0.13520479202270508
F0.3738560378551483
F-0.4700615406036377
F-0.012798705138266087
F0.025597410276532173
F-0.13091441988945007
F0.9781098365783691
F0.20747138559818268
F-0.1909356564283371
F-0.5470538139343262
F-0.19305753707885742
I-1
I258
tp778
tp779
Rp780
ag1
(g2
g3
(F-0.03673761337995529
F-0.8898698687553406
F-0.2117547243833542
F0.4024198353290558
F-2.7156524658203125
F0.4444641172885895
F-1.3520087003707886
F-0.23687410354614258
F1.2873533964157104
F-0.2818259298801422
F-0.18495742976665497
F-0.4856492578983307
F-0.31284815073013306
I-1
I259
tp781
tp782
Rp783
ag1
(g2
g3
(F-0.1761203557252884
F-0.782877504825592
F-0.43187227845191956
F0.4117896556854248
F4.3946099281311035
F-1.2368203401565552
F-0.4723885655403137
F0.28070545196533203
F1.0481739044189453
F0.28134509921073914
F-0.18797078728675842
F-0.2851113975048065
F-0.45819568634033203
I-1
I260
tp784
tp785
Rp786
ag1
(g2
g3
(F-0.042985983192920685
F-0.898196816444397
F-0.10964484512805939
F0.4235241413116455
F4.889105319976807
F-0.05933944880962372
F0.008144630119204521
F-0.011558174155652523
F1.592832088470459
F0.7226511240005493
F-0.21094761788845062
F-0.42147189378738403
F-0.13381914794445038
I-1
I261
tp787
tp788
Rp789
ag1
(g2
g3
(F-0.05905142053961754
F-0.9533160328865051
F-0.05412467569112778
F0.29115620255470276
F0.046540744602680206
F-0.019779816269874573
F0.06050296872854233
F-0.04410173371434212
F0.94700026512146
F0.23866845667362213
F-0.3199883997440338
F-0.3782992660999298
F-0.02202342264354229
I-1
I262
tp790
tp791
Rp792
ag1
(g2
g3
(F-0.15756967663764954
F-0.9057141542434692
F-0.3011256158351898
F0.2533319890499115
F0.8388969302177429
F1.977981686592102
F-0.43981003761291504
F0.20890839397907257
F0.8780538439750671
F-0.17741325497627258
F-0.33370083570480347
F-0.30160024762153625
F-0.3164103627204895
I-1
I263
tp793
tp794
Rp795
ag1
(g2
g3
(F0.06734378635883331
F-0.9919741749763489
F0.09682686626911163
F-0.0455695204436779
F0.9215067625045776
F-4.849545478820801
F-0.7213815450668335
F0.40780195593833923
F0.8564456105232239
F0.8232234716415405
F0.10352559387683868
F-0.45785367488861084
F0.22972369194030762
I-1
I264
tp796
tp797
Rp798
ag1
(g2
g3
(F0.17694225907325745
F-0.6417971849441528
F-0.07699164748191833
F-0.7421995401382446
F0.09075445681810379
F-3.5882914066314697
F-2.2281382083892822
F0.17717798054218292
F0.9653741717338562
F0.3831220269203186
F0.18263694643974304
F-0.43039536476135254
F-0.05845653638243675
I-1
I265
tp799
tp800
Rp801
ag1
(g2
g3
(F0.15154552459716797
F-0.08336899429559708
F0.01904239133000374
F-0.9847440719604492
F-0.037232596427202225
F-0.006981112062931061
F-0.0034905560314655304
F-0.0873708426952362
F0.9482187032699585
F0.2715311646461487
F0.17132963240146637
F-0.30525097250938416
F-0.15053419768810272
I-1
I266
tp802
tp803
Rp804
ag1
(g2
g3
(F0.5017983913421631
F-0.08783963322639465
F0.002686932682991028
F-0.8605087995529175
F-0.4118855893611908
F0.8610038161277771
F0.49914950132369995
F-0.17261584103107452
F1.6771401166915894
F-0.5845670700073242
F0.18966734409332275
F-0.10309566557407379
F-0.3455418348312378
I-1
I267
tp805
tp806
Rp807
ag1
(g2
g3
(F0.22111991047859192
F-0.05755779892206192
F0.018519029021263123
F-0.9733704328536987
F4.613351345062256
F0.8668214082717896
F-0.033742040395736694
F-0.3633732497692108
F1.3059489727020264
F0.4182299077510834
F0.19707010686397552
F-0.3341533839702606
F-0.2334689199924469
I-1
I268
tp808
tp809
Rp810
ag1
(g2
g3
(F-0.19023530185222626
F-0.10171262919902802
F-0.017883218824863434
F-0.9762915372848511
F-0.6643691658973694
F-0.7888656258583069
F-0.8237711787223816
F-0.2016141563653946
F0.6032842397689819
F1.014273762702942
F0.18422114849090576
F-0.4806646704673767
F0.10296830534934998
I-1
I269
tp811
tp812
Rp813
ag1
(g2
g3
(F0.0970851480960846
F-0.07690376043319702
F0.01536797359585762
F-0.9921815395355225
F-0.06515704095363617
F-0.026760928332805634
F-0.004654074553400278
F-0.12724746763706207
F0.9550290703773499
F0.2647015452384949
F0.21298785507678986
F-0.4509897232055664
F-0.12840618193149567
I-1
I270
tp814
tp815
Rp816
ag1
(g2
g3
(F0.12254968285560608
F-0.13870897889137268
F-0.002372507005929947
F-0.9827186465263367
F-0.8598402738571167
F0.023270372301340103
F0.036069076508283615
F-0.10805413872003555
F0.9899962544441223
F0.2432708442211151
F0.20279885828495026
F-0.4500863254070282
F-0.1524922102689743
I-1
I271
tp817
tp818
Rp819
ag1
(g2
g3
(F0.3813670873641968
F-0.14754946529865265
F-0.06501007080078125
F-0.9102537631988525
F4.88561487197876
F-1.2531095743179321
F-0.9249973297119141
F-0.10484003275632858
F0.6850148439407349
F0.16004948318004608
F0.22232946753501892
F-0.31706124544143677
F-0.3495182693004608
I-1
I272
tp820
tp821
Rp822
ag1
(g2
g3
(F-0.0030679237097501755
F-0.15670830011367798
F0.016994036734104156
F-0.9874938726425171
F3.642976760864258
F0.4246843159198761
F0.9808462262153625
F-0.024914028123021126
F1.9858946800231934
F1.1686829328536987
F0.155479297041893
F-0.2844434082508087
F0.02477501705288887
I-1
I273
tp823
tp824
Rp825
ag1
(g2
g3
(F-0.013749169185757637
F-0.119455985724926
F-0.0013895109295845032
F-0.9927433133125305
F-2.0326671600341797
F-0.4211937487125397
F-0.4479546844959259
F0.7452985644340515
F1.3617620468139648
F0.4762101173400879
F0.2036946713924408
F-0.2969001829624176
F-0.07453903555870056
I-1
I274
tp826
tp827
Rp828
ag1
(g2
g3
(F0.10033729672431946
F-0.11129504442214966
F0.04931563511490822
F-0.987478494644165
F-0.28389856219291687
F-0.05003130063414574
F-0.006981112062931061
F-0.11557430028915405
F0.978331446647644
F0.2990349233150482
F0.20777931809425354
F-0.2592226564884186
F-0.10855944454669952
I-1
I275
tp829
tp830
Rp831
ag1
(g2
g3
(F0.15164916217327118
F-0.14205890893936157
F0.05206892639398575
F-0.9767858982086182
F-0.13264112174510956
F-0.002327037276700139
F0.037232596427202225
F-0.08906876295804977
F0.9411753416061401
F0.28054192662239075
F0.20224818587303162
F-0.25553369522094727
F-0.11690523475408554
I-1
I276
tp832
tp833
Rp834
ag1
(g2
g3
(F0.19840022921562195
F-0.1526758372783661
F0.035022981464862823
F-0.9675230383872986
F-2.125748634338379
F1.2880151271820068
F0.2175779789686203
F-0.08859405666589737
F1.0169334411621094
F0.3080442249774933
F0.20456881821155548
F-0.25105515122413635
F-0.1621057540178299
I-1
I277
tp835
tp836
Rp837
ag1
(g2
g3
(F0.36597979068756104
F-0.1891564279794693
F-0.03559964895248413
F-0.9105005860328674
F4.409735679626465
F-1.0006260871887207
F-0.4712250530719757
F-0.23443812131881714
F0.7627456784248352
F0.1955544799566269
F0.21974559128284454
F-0.3942428529262543
F-0.26574140787124634
I-1
I278
tp838
tp839
Rp840
ag1
(g2
g3
(F-0.0022487202659249306
F-0.20519129931926727
F0.05718262866139412
F-0.9770473837852478
F4.093258380889893
F0.3013513386249542
F1.3077949285507202
F-0.1962515115737915
F1.774174451828003
F1.2373501062393188
F0.20534378290176392
F-0.3674522638320923
F0.08406350016593933
I-1
I279
tp841
tp842
Rp843
ag1
(g2
g3
(F-0.09509816765785217
F-0.21580879390239716
F0.03814315050840378
F-0.9710448980331421
F-3.5056817531585693
F-0.4712250530719757
F-1.2519460916519165
F-1.117435336112976
F0.887288510799408
F1.4803106784820557
F0.20930330455303192
F-0.32612183690071106
F0.037128131836652756
I-1
I280
tp844
tp845
Rp846
ag1
(g2
g3
(F0.1202169805765152
F-0.2617679238319397
F0.03944311663508415
F-0.9568018913269043
F-0.006981112062931061
F-0.011635186150670052
F-0.017452780157327652
F-0.12164859473705292
F0.9445826411247253
F0.28199413418769836
F0.2213384062051773
F-0.2977757155895233
F-0.027311136946082115
I-1
I281
tp847
tp848
Rp849
ag1
(g2
g3
(F0.14183661341667175
F-0.3456178307533264
F0.020973965525627136
F-0.9273568987846375
F-0.20128872990608215
F-0.019779816269874573
F0.08493685722351074
F-0.10219943523406982
F0.9385091662406921
F0.2712857723236084
F0.214043989777565
F-0.30236852169036865
F-0.03384773060679436
I-1
I282
tp850
tp851
Rp852
ag1
(g2
g3
(F0.14734841883182526
F-0.35007598996162415
F0.016156785190105438
F-0.9249184727668762
F-0.5666335821151733
F0.06748408079147339
F0.032578520476818085
F-0.09589166194200516
F0.9742075800895691
F0.2517997622489929
F0.2139969915151596
F-0.30053725838661194
F-0.038458842784166336
I-1
I283
tp853
tp854
Rp855
ag1
(g2
g3
(F0.26661157608032227
F-0.45990023016929626
F-0.05966918170452118
F-0.8448961973190308
F-1.9803087711334229
F2.656312942504883
F1.8139255046844482
F-0.4047389030456543
F1.1469590663909912
F0.1301775425672531
F0.2116795927286148
F-0.30160677433013916
F-0.0984836146235466
I-1
I284
tp856
tp857
Rp858
ag1
(g2
g3
(F-0.014300401322543621
F-0.7838703989982605
F0.012257266789674759
F-0.6206387281417847
F1.1798079013824463
F2.167635202407837
F0.8610038161277771
F-0.560555636882782
F0.6209145188331604
F0.7044353485107422
F0.07119153439998627
F-0.4034408628940582
F0.18989570438861847
I-1
I285
tp859
tp860
Rp861
ag1
(g2
g3
(F0.20400530099868774
F-0.8579691648483276
F-0.08771213889122009
F-0.46322497725486755
F-0.8633308410644531
F-0.20245224237442017
F-0.046540744602680206
F-0.05991215258836746
F1.0043071508407593
F0.2664136588573456
F0.022559326142072678
F-0.45414984226226807
F0.09980224072933197
I-1
I286
tp862
tp863
Rp864
ag1
(g2
g3
(F0.10747826844453812
F-0.8797464966773987
F-0.10068552941083908
F-0.4520585238933563
F0.022106854245066643
F-0.013962224125862122
F-0.0034905560314655304
F-0.09466259926557541
F0.9389930367469788
F0.2710440754890442
F0.015179432928562164
F-0.4606145918369293
F0.08218267560005188
I-1
I287
tp865
tp866
Rp867
ag1
(g2
g3
(F0.017774855718016624
F-0.9394524693489075
F-0.28401148319244385
F-0.19092026352882385
F2.972790002822876
F3.079833745956421
F0.5584889650344849
F-0.386515349149704
F1.1447781324386597
F0.08367214351892471
F-0.23883016407489777
F-0.39571407437324524
F-0.1986084282398224
I-1
I288
tp868
tp869
Rp870
ag1
(g2
g3
(F-0.04008327051997185
F-0.8820840716362
F-0.07060457766056061
F0.46404317021369934
F-0.729526162147522
F-0.023270372301340103
F-1.3415369987487793
F-1.3631339073181152
F1.5586994886398315
F0.6161471605300903
F-0.17097613215446472
F-0.3231736123561859
F-0.18491005897521973
I-1
I289
tp871
tp872
Rp873
ag1
(g2
g3
(F-0.06417309492826462
F-0.8665756583213806
F-0.13944149017333984
F0.47485214471817017
F-0.018616298213601112
F-0.011635186150670052
F0.05933944880962372
F-0.09199623763561249
F0.9559935927391052
F0.2554568946361542
F-0.17033563554286957
F-0.30664846301078796
F-0.20793864130973816
I-1
I290
tp874
tp875
Rp876
ag1
(g2
g3
(F-0.06712204962968826
F-0.8639614582061768
F-0.1375916451215744
F0.4797225892543793
F0.002327037276700139
F-0.018616298213601112
F0.052358340471982956
F-0.08372955769300461
F0.9513784050941467
F0.2520506978034973
F-0.17485752701759338
F-0.3066236078739166
F-0.2061312198638916
I-1
I291
tp877
tp878
Rp879
ag1
(g2
g3
(F-0.06821746379137039
F-0.8625885248184204
F-0.13596005737781525
F0.4824959635734558
F-0.031415004283189774
F-0.016289260238409042
F0.046540744602680206
F-0.081300750374794
F0.953807532787323
F0.2445020228624344
F-0.17666450142860413
F-0.3084588050842285
F-0.20615160465240479
I-1
I292
tp880
tp881
Rp882
ag1
(g2
g3
(F-0.07052423804998398
F-0.8608201742172241
F-0.135320782661438
F0.4854927957057953
F-0.0919179692864418
F-0.011635186150670052
F0.029087966307997704
F-0.07667919993400574
F0.9482207298278809
F0.247426375746727
F-0.1739892214536667
F-0.30479395389556885
F-0.20981135964393616
I-1
I293
tp883
tp884
Rp885
ag1
(g2
g3
(F-0.07351407408714294
F-0.8585852384567261
F-0.13618159294128418
F0.48875531554222107
F-0.17918187379837036
F0.006981112062931061
F0.05352185666561127
F-0.07110263407230377
F0.9190967082977295
F0.1578216701745987
F-0.17580443620681763
F-0.3029402792453766
F-0.20889894664287567
I-1
I294
tp886
tp887
Rp888
ag1
(g2
g3
(F-0.0813828781247139
F-0.8541062474250793
F-0.14677633345127106
F0.4922764003276825
F-0.8121359944343567
F0.009308149106800556
F-0.016289260238409042
F-0.11388598382472992
F0.9768847227096558
F0.24351537227630615
F-0.17781183123588562
F-0.29099443554878235
F-0.22550062835216522
I-1
I295
tp889
tp890
Rp891
ag1
(g2
g3
(F-0.1051115095615387
F-0.8430139422416687
F-0.17060023546218872
F0.4991739094257355
F-1.5230458974838257
F0.7574506402015686
F0.07562871277332306
F0.0024850608315318823
F1.1374050378799438
F0.048949528485536575
F-0.1772414892911911
F-0.2744908332824707
F-0.2568378746509552
I-1
I296
tp892
tp893
Rp894
ag1
(g2
g3
(F-0.2829892337322235
F-0.7359815239906311
F-0.4312055706977844
F0.4385317265987396
F1.0541478395462036
F1.0448397397994995
F0.05817593261599541
F0.46135419607162476
F1.6356127262115479
F-0.10249336063861847
F-0.19801019132137299
F0.03855357691645622
F-0.4048103988170624
I-1
I297
tp895
tp896
Rp897
ag1
(g2
g3
(F-0.2558492124080658
F-0.7564214468002319
F-0.3560870885848999
F0.4853552281856537
F4.791369915008545
F-0.4107220768928528
F-1.0832358598709106
F0.2617746591567993
F0.883543848991394
F0.2543422281742096
F-0.1657380610704422
F-0.11093226075172424
F-0.42154353857040405
I-1
I298
tp898
tp899
Rp900
ag1
(g2
g3
(F-0.042571887373924255
F-0.8265371322631836
F-0.08502423018217087
F0.5547927618026733
F4.094421863555908
F0.9377959966659546
F0.9924814105033875
F0.07455269992351532
F1.6862515211105347
F0.9844281673431396
F-0.09810475260019302
F-0.47014471888542175
F-0.2280576378107071
I-1
I299
tp901
tp902
Rp903
ag1
(g2
g3
(F0.05145508050918579
F-0.8103113174438477
F0.14001938700675964
F0.5666943788528442
F1.5695866346359253
F-0.4002504050731659
F0.024433892220258713
F-0.13909687101840973
F-0.5163711905479431
F1.994631052017212
F-0.14522835612297058
F-0.43428051471710205
F0.012563133612275124
I-1
I300
tp904
tp905
Rp906
ag1
(g2
g3
(F-0.0208600964397192
F-0.8558196425437927
F-0.08565432578325272
F0.5097067356109619
F-0.438646525144577
F-0.11635186523199081
F-0.09308148920536041
F-0.2359205037355423
F1.0475529432296753
F0.37788864970207214
F-0.05866052955389023
F-0.3575991988182068
F-0.11941776424646378
I-1
I301
tp907
tp908
Rp909
ag1
(g2
g3
(F0.017141519114375114
F-0.8610782623291016
F-0.10762675106525421
F0.49665573239326477
F0.024433892220258713
F-0.017452780157327652
F0.032578520476818085
F-0.08228059113025665
F0.9569695591926575
F0.21844561398029327
F-0.06324213743209839
F-0.34744131565093994
F-0.11943034082651138
I-1
I302
tp910
tp911
Rp912
ag1
(g2
g3
(F-0.17446167767047882
F-0.7521622180938721
F-0.42152997851371765
F0.47552862763404846
F-7.285953521728516
F-1.041349172592163
F2.794771671295166
F-0.5868360996246338
F1.646837592124939
F-0.3250839412212372
F-0.11168120801448822
F-0.08424780517816544
F-0.34623658657073975
I-1
I303
tp913
tp914
Rp915
ag1
(g2
g3
(F-0.2177981436252594
F-0.7148424386978149
F-0.46481195092201233
F0.4748833179473877
F2.5795207023620605
F0.43981003761291504
F0.07213815301656723
F0.4460320770740509
F0.7633458971977234
F-0.0007869375986047089
F-0.11904619634151459
F-0.05471671372652054
F-0.3434526026248932
I-1
I304
tp916
tp917
Rp918
ag1
(g2
g3
(F-0.1524486243724823
F-0.773110032081604
F-0.36664167046546936
F0.4946049451828003
F4.879796981811523
F-1.314776062965393
F-0.9610664248466492
F-0.01877305842936039
F0.7675420045852661
F0.2365175187587738
F-0.13634715974330902
F-0.08418981730937958
F-0.3658337891101837
I-1
I305
tp919
tp920
Rp921
ag1
(g2
g3
(F0.055221255868673325
F-0.8533263802528381
F-0.02414228767156601
F0.5178821086883545
F4.464420795440674
F0.8796200752258301
F1.7441143989562988
F0.18140824139118195
F1.4775794744491577
F1.2662359476089478
F-0.18492989242076874
F-0.484151154756546
F-0.09406728297472
I-1
I306
tp922
tp923
Rp924
ag1
(g2
g3
(F-0.012388133443892002
F-0.8832303285598755
F-0.1195945218205452
F0.45326343178749084
F-0.24782946705818176
F-0.09657204896211624
F-0.08260982483625412
F-0.09125982224941254
F0.9766249060630798
F0.30342456698417664
F-0.14275389909744263
F-0.4771035313606262
F-0.1463032364845276
I-1
I307
tp925
tp926
Rp927
ag1
(g2
g3
(F0.002424168400466442
F-0.8892539739608765
F-0.12011037766933441
F0.4413559138774872
F-0.2873890995979309
F-0.045377228409051895
F-0.002327037276700139
F-0.06744159013032913
F0.9737120866775513
F0.2669046223163605
F-0.14368855953216553
F-0.4780307412147522
F-0.15000614523887634
I-1
I308
tp928
tp929
Rp930
ag1
(g2
g3
(F0.0009023165330290794
F-0.9129147529602051
F-0.1381502002477646
F0.38405781984329224
F-1.0238964557647705
F0.07330167293548584
F0.1489303857088089
F-0.0701260194182396
F0.9924148917198181
F0.24522799253463745
F-0.15215371549129486
F-0.4651663303375244
F-0.17866133153438568
I-1
I309
tp931
tp932
Rp933
ag1
(g2
g3
(F-0.023641370236873627
F-0.9022916555404663
F-0.17445605993270874
F0.3935428261756897
F-1.7580766677856445
F0.7714128494262695
F0.26760929822921753
F0.07985147088766098
F1.2082411050796509
F0.321443110704422
F-0.15895284712314606
F-0.444972962141037
F-0.22112944722175598
I-1
I310
tp934
tp935
Rp936
ag1
(g2
g3
(F-0.18510162830352783
F-0.7755840420722961
F-0.4811677932739258
F0.36425894498825073
F0.5643065571784973
F1.3031408786773682
F-0.4211937487125397
F0.1272236555814743
F1.8411449193954468
F-0.18370553851127625
F-0.19367611408233643
F-0.19841918349266052
F-0.444169282913208
I-1
I311
tp937
tp938
Rp939
ag1
(g2
g3
(F0.05216282606124878
F-0.9020528197288513
F0.013882024213671684
F0.42823711037635803
F4.388792514801025
F0.0802827849984169
F0.7213815450668335
F0.035409651696681976
F1.9858591556549072
F1.2782777547836304
F-0.27796536684036255
F-0.4226951599121094
F-0.011625153943896294
I-1
I312
tp940
tp941
Rp942
ag1
(g2
g3
(F-0.041229184716939926
F-0.9608418345451355
F-0.09460564702749252
F0.25716298818588257
F-0.055848896503448486
F-0.019779816269874573
F0.023270372301340103
F-0.07376183569431305
F0.9535614848136902
F0.2518092691898346
F-0.24764837324619293
F-0.3602430820465088
F-0.04258532449603081
I-1
I313
tp943
tp944
Rp945
ag1
(g2
g3
(F-0.07281961292028427
F-0.92203688621521
F-0.2789241075515747
F0.25835397839546204
F-0.601539134979248
F2.2234840393066406
F0.9401230812072754
F-0.02161998115479946
F0.8277003169059753
F0.575958251953125
F-0.21301335096359253
F-0.3203105032444
F-0.21849578619003296
I-1
I314
tp946
tp947
Rp948
ag1
(g2
g3
(F-0.09226739406585693
F-0.8862903118133545
F-0.28853923082351685
F0.3503158688545227
F-0.5712876319885254
F3.8547372817993164
F1.87791907787323
F-0.11863541603088379
F0.8216593861579895
F0.5433046221733093
F-0.17545533180236816
F-0.2929648458957672
F-0.269794762134552
I-1
I315
tp949
tp950
Rp951
ag1
(g2
g3
(F-0.11952671408653259
F-0.5177265405654907
F-0.21840696036815643
F0.8185175657272339
F-0.2280496507883072
F8.11786937713623
F2.358452320098877
F0.3146774470806122
F0.649861216545105
F0.5994538068771362
F0.14670845866203308
F-0.29161977767944336
F-0.2651752829551697
I-1
I316
tp952
tp953
Rp954
ag1
(g2
g3
(F-0.0963711366057396
F-0.1582459807395935
F-0.16202980279922485
F0.969235360622406
F-0.06166648864746094
F3.212475061416626
F0.7120733857154846
F0.5204048752784729
F0.895422637462616
F0.02842774987220764
F0.19008052349090576
F-0.31558099389076233
F-0.19194012880325317
I-1
I317
tp955
tp956
Rp957
ag1
(g2
g3
(F-0.046870388090610504
F-0.038487713783979416
F-0.15682031214237213
F0.9857633709907532
F-0.8435510396957397
F-0.2059427946805954
F0.9994624853134155
F0.4581986963748932
F1.459890365600586
F0.7152459621429443
F0.1895524263381958
F-0.3274572789669037
F-0.15320546925067902
I-1
I318
tp958
tp959
Rp960
ag1
(g2
g3
(F-0.0928458422422409
F-0.04401914402842522
F-0.10521864891052246
F0.9891263246536255
F-0.4479546844959259
F-0.20943336188793182
F0.8633308410644531
F-0.247431680560112
F1.0488332509994507
F0.04452037066221237
F0.16302427649497986
F-0.32371440529823303
F-0.17650136351585388
I-1
I319
tp961
tp962
Rp963
ag1
(g2
g3
(F-0.10314556956291199
F-0.05359666049480438
F-0.07512347400188446
F0.9903760552406311
F-0.4700615406036377
F-0.20245224237442017
F0.7725763916969299
F-0.030474569648504257
F1.0105981826782227
F0.347752183675766
F0.14846187829971313
F-0.3264318108558655
F-0.18309548497200012
I-1
I320
tp964
tp965
Rp966
ag1
(g2
g3
(F-0.11183017492294312
F-0.06164398044347763
F-0.05926193296909332
F0.9900415539741516
F-0.1268235296010971
F-0.16987371444702148
F0.4107220768928528
F-0.01590190827846527
F0.988512396812439
F0.2661842405796051
F0.13301891088485718
F-0.32636839151382446
F-0.1850743144750595
I-1
I321
tp967
tp968
Rp969
ag1
(g2
g3
(F-0.1224551796913147
F-0.12011022865772247
F-0.038465701043605804
F0.9844281077384949
F-0.1838359385728836
F0.006981112062931061
F0.06515704095363617
F-0.08421693742275238
F0.9494370818138123
F0.24571967124938965
F0.12372464686632156
F-0.3171672523021698
F-0.20636139810085297
I-1
I322
tp970
tp971
Rp972
ag1
(g2
g3
(F-0.5358932018280029
F-0.06660915166139603
F0.03323717415332794
F0.840997576713562
F0.5933945178985596
F2.765683889389038
F1.2635812759399414
F-0.11504270881414413
F1.88456130027771
F0.39090874791145325
F0.09108835458755493
F-0.06500063091516495
F-0.39429038763046265
I-1
I323
tp973
tp974
Rp975
ag1
(g2
g3
(F-0.2935871481895447
F0.02152884751558304
F0.008604370057582855
F0.9556511640548706
F4.592408180236816
F1.7441143989562988
F0.15474797785282135
F-0.42531150579452515
F1.214388132095337
F0.5672599077224731
F0.1904367059469223
F-0.330520361661911
F-0.2649020552635193
I-1
I324
tp976
tp977
Rp978
ag1
(g2
g3
(F-0.108962282538414
F0.08593974262475967
F-0.014210842549800873
F0.9902220368385315
F-0.07446519285440445
F-0.020943336188793182
F0.006981112062931061
F-0.09783004969358444
F0.9499243497848511
F0.25472602248191833
F0.21729537844657898
F-0.4501577317714691
F-0.1551370918750763
I-1
I325
tp979
tp980
Rp981
ag1
(g2
g3
(F-0.5216146111488342
F0.10056193172931671
F0.14036697149276733
F0.8355253338813782
F1.0215693712234497
F1.9651830196380615
F-0.9761921167373657
F0.13694420456886292
F0.8372815847396851
F-0.208349347114563
F0.14020125567913055
F-0.21191775798797607
F-0.4570273458957672
I-1
I326
tp982
tp983
Rp984
ag1
(g2
g3
(F0.06490682065486908
F0.21613912284374237
F0.008270036429166794
F0.9741676449775696
F4.3655219078063965
F-0.2885526120662689
F0.16638316214084625
F0.0021035936661064625
F0.9290732741355896
F1.231473684310913
F0.12471447139978409
F-0.37720414996147156
F0.0944218635559082
I-1
I327
tp985
tp986
Rp987
ag1
(g2
g3
(F0.13170066475868225
F0.1843717247247696
F-0.01683887094259262
F0.9738472104072571
F-2.513200283050537
F-1.633580207824707
F1.05763840675354
F-0.6453710794448853
F1.3676022291183472
F-0.36011072993278503
F0.15271951258182526
F-0.38751912117004395
F0.0743270292878151
I-1
I328
tp988
tp989
Rp990
ag1
(g2
g3
(F-0.08894460648298264
F0.1824292689561844
F0.032925695180892944
F0.9786339998245239
F-0.13962224125862122
F-0.030251484364271164
F-0.030251484364271164
F-0.09322196245193481
F0.9654701948165894
F0.2245289832353592
F0.11238479614257812
F-0.3905191719532013
F-0.08295604586601257
I-1
I329
tp991
tp992
Rp993
ag1
(g2
g3
(F-0.0960138589143753
F0.18784359097480774
F0.03519013896584511
F0.9768612384796143
F-0.3444015085697174
F-0.008144630119204521
F0.030251484364271164
F-0.09370265156030655
F0.9504132866859436
F0.23208054900169373
F0.11592482030391693
F-0.3877943456172943
F-0.09214950352907181
I-1
I330
tp994
tp995
Rp996
ag1
(g2
g3
(F-0.5031582117080688
F0.14446021616458893
F0.18763047456741333
F0.8311184644699097
F0.6981111764907837
F1.52188241481781
F-0.8342428803443909
F0.04857109859585762
F1.1651538610458374
F-0.3562448024749756
F0.09964075684547424
F-0.21257485449314117
F-0.42506900429725647
I-1
I331
tp997
tp998
Rp999
ag1
(g2
g3
(F-0.30298978090286255
F0.1544586420059204
F0.09111431986093521
F0.9359689950942993
F4.317817687988281
F0.06399352848529816
F-0.3641813397407532
F-0.4002864956855774
F1.0347330570220947
F0.32403406500816345
F0.18574078381061554
F-0.4613109529018402
F-0.24405622482299805
I-1
I332
tp1000
tp1001
Rp1002
ag1
(g2
g3
(F-0.16928896307945251
F0.1838880330324173
F0.048790328204631805
F0.9670294523239136
F4.647093296051025
F0.9261608123779297
F-0.26760929822921753
F0.0713583454489708
F1.394690990447998
F0.5675939917564392
F0.2281433790922165
F-0.4250183701515198
F-0.03958895057439804
I-1
I333
tp1003
tp1004
Rp1005
ag1
(g2
g3
(F-0.03271093964576721
F0.2107807695865631
F0.01602698303759098
F0.9768544435501099
F4.181685924530029
F0.3781435489654541
F0.6236459612846375
F0.0253604743629694
F1.9390650987625122
F0.9110710024833679
F0.227838933467865
F-0.3879145681858063
F0.050970979034900665
I-1
I334
tp1006
tp1007
Rp1008
ag1
(g2
g3
(F-0.003764544613659382
F0.16342434287071228
F0.006967096123844385
F0.9865241050720215
F-2.040811777114868
F-0.4339924454689026
F-1.0041165351867676
F-0.519477903842926
F1.2331626415252686
F0.2859785854816437
F0.24562785029411316
F-0.33734893798828125
F0.034641459584236145
I-1
I335
tp1009
tp1010
Rp1011
ag1
(g2
g3
(F-0.126307412981987
F0.33919745683670044
F-0.04248015210032463
F0.931228756904602
F-0.05817593261599541
F-0.013962224125862122
F0.048867784440517426
F-0.1233602836728096
F0.9460471868515015
F0.24449293315410614
F0.2524111270904541
F-0.3264535665512085
F-0.016042407602071762
I-1
I336
tp1012
tp1013
Rp1014
ag1
(g2
g3
(F-0.2417919784784317
F0.3606877326965332
F0.028288230299949646
F0.9003559947013855
F-2.9122872352600098
F0.24550242722034454
F1.4741780757904053
F-0.41706931591033936
F1.4656301736831665
F-0.25292763113975525
F0.22788013517856598
F-0.31740885972976685
F-0.1223868653178215
I-1
I337
tp1015
tp1016
Rp1017
ag1
(g2
g3
(F-0.004454607143998146
F0.1953253448009491
F-0.04864219203591347
F0.9795213937759399
F2.008233070373535
F-4.43184232711792
F-1.0145882368087769
F0.8211029767990112
F0.8017326593399048
F0.6935470700263977
F0.2690792679786682
F-0.34516364336013794
F-0.09348959475755692
I-1
I338
tp1018
tp1019
Rp1020
ag1
(g2
g3
(F-0.0185699462890625
F-0.5554654598236084
F-0.14408816397190094
F0.818750262260437
F-0.1500938981771469
F-4.227063179016113
F0.12216945737600327
F0.27309006452560425
F0.7484520077705383
F0.6464219093322754
F-0.03274001553654671
F-0.45594361424446106
F-0.32438457012176514
I-1
I339
tp1021
tp1022
Rp1023
ag1
(g2
g3
(F-0.04299112409353256
F-0.6704407930374146
F-0.16674992442131042
F0.721703052520752
F-0.46308040618896484
F-0.3094959557056427
F-0.16871020197868347
F0.08933025598526001
F1.0868480205535889
F0.1907038539648056
F-0.0790528878569603
F-0.45943981409072876
F-0.33033061027526855
I-1
I340
tp1024
tp1025
Rp1026
ag1
(g2
g3
(F-0.056908220052719116
F-0.6870402693748474
F-0.12445597350597382
F0.7136160135269165
F-0.1733642816543579
F0.041886672377586365
F0.027924448251724243
F-0.07937965542078018
F1.019620418548584
F0.2130771428346634
F-0.08096562325954437
F-0.4566933512687683
F-0.34049397706985474
I-1
I341
tp1027
tp1028
Rp1029
ag1
(g2
g3
(F-0.058028560131788254
F-0.6869282126426697
F-0.11897030472755432
F0.7145687341690063
F-0.012798705138266087
F0.017452780157327652
F0.005817593075335026
F-0.06405152380466461
F0.9620679616928101
F0.20091649889945984
F-0.0773630291223526
F-0.45579493045806885
F-0.3432299792766571
I-1
I342
tp1030
tp1031
Rp1032
ag1
(g2
g3
(F-0.0462515652179718
F-0.6964084506034851
F-0.1230572983622551
F0.7055019736289978
F0.4944954216480255
F-1.8220702409744263
F-0.1151883453130722
F1.5422526597976685
F1.1503623723983765
F0.1727941334247589
F-0.08458378911018372
F-0.45759648084640503
F-0.33960437774658203
I-1
I343
tp1033
tp1034
Rp1035
ag1
(g2
g3
(F0.01681026816368103
F-0.9200387597084045
F-0.07494300603866577
F0.3842262029647827
F1.1623550653457642
F-1.7929822206497192
F0.275753915309906
F-0.16309881210327148
F1.1607624292373657
F0.02138676680624485
F-0.20350328087806702
F-0.43159863352775574
F-0.1171659305691719
I-1
I344
tp1036
tp1037
Rp1038
ag1
(g2
g3
(F0.039654649794101715
F-0.951694130897522
F0.02690439671278
F0.30328497290611267
F0.4910048544406891
F-0.5561618804931641
F0.11169779300689697
F-0.07509209215641022
F0.5972962975502014
F0.41770726442337036
F-0.1793670356273651
F-0.36970508098602295
F-0.020791783928871155
I-1
I345
tp1039
tp1040
Rp1041
ag1
(g2
g3
(F0.040920451283454895
F-0.9577208757400513
F0.03821439668536186
F0.28219810128211975
F-0.5259104371070862
F-0.4235207736492157
F-0.20012520253658295
F-0.18202880024909973
F0.558445930480957
F0.5404168367385864
F-0.1749195158481598
F-0.3669842779636383
F-0.029977446421980858
I-1
I346
tp1042
tp1043
Rp1044
ag1
(g2
g3
(F0.0418245904147625
F-0.9627352356910706
F-0.013130455277860165
F0.2668691575527191
F-2.147855520248413
F-0.841223955154419
F-0.4712250530719757
F-0.3961869180202484
F1.7098886966705322
F-0.1224476769566536
F-0.162518709897995
F-0.36528831720352173
F-0.06494446843862534
I-1
I347
tp1045
tp1046
Rp1047
ag1
(g2
g3
(F0.014729778282344341
F-0.9598914980888367
F-0.1337292492389679
F0.24598319828510284
F-0.5549983978271484
F-0.14543983340263367
F-0.6969476938247681
F-0.09931447356939316
F1.0465731620788574
F0.24642784893512726
F-0.15884581208229065
F-0.3369661271572113
F-0.1525333970785141
I-1
I348
tp1048
tp1049
Rp1050
ag1
(g2
g3
(F-0.008242855779826641
F-0.9482365846633911
F-0.14809450507164001
F0.2807978689670563
F-0.30484187602996826
F-0.046540744602680206
F0.0
F-0.10926399379968643
F0.9722687005996704
F0.2491181492805481
F-0.16169436275959015
F-0.32591864466667175
F-0.16175979375839233
I-1
I349
tp1051
tp1052
Rp1053
ag1
(g2
g3
(F-0.029379956424236298
F-0.9229953289031982
F-0.15075939893722534
F0.352828711271286
F-0.05003130063414574
F-0.020943336188793182
F-0.010471668094396591
F-0.09686717391014099
F0.9610995650291443
F0.2272075116634369
F-0.16538311541080475
F-0.323152095079422
F-0.16732285916805267
I-1
I350
tp1054
tp1055
Rp1056
ag1
(g2
g3
(F-0.030654512345790863
F-0.9196354746818542
F-0.14937415719032288
F0.36196431517601013
F-0.034905560314655304
F-0.012798705138266087
F-0.020943336188793182
F-0.08616511523723602
F0.9467692375183105
F0.2306220829486847
F-0.16447138786315918
F-0.3259233832359314
F-0.16824544966220856
I-1
I351
tp1057
tp1058
Rp1059
ag1
(g2
g3
(F-0.03137483820319176
F-0.9169339537620544
F-0.14798283576965332
F0.3692544102668762
F-0.025597410276532173
F0.008144630119204521
F-0.005817593075335026
F-0.09418728202581406
F0.9477415084838867
F0.23597709834575653
F-0.1635681390762329
F-0.3231601119041443
F-0.1673072725534439
I-1
I352
tp1060
tp1061
Rp1062
ag1
(g2
g3
(F-0.03256545215845108
F-0.9140577912330627
F-0.14681875705718994
F0.37667250633239746
F-0.11286130547523499
F0.016289260238409042
F0.036069076508283615
F-0.09832698851823807
F0.9598867893218994
F0.22185015678405762
F-0.16448697447776794
F-0.3259281814098358
F-0.17009180784225464
I-1
I353
tp1063
tp1064
Rp1065
ag1
(g2
g3
(F-0.03533795475959778
F-0.9090079665184021
F-0.14624370634555817
F0.3886754512786865
F-0.7225450873374939
F0.008144630119204521
F0.05468537658452988
F-0.08957973122596741
F0.988537609577179
F0.22817814350128174
F-0.1609710156917572
F-0.3176736533641815
F-0.1792708784341812
I-1
I354
tp1066
tp1067
Rp1068
ag1
(g2
g3
(F-0.07248244434595108
F-0.8857387900352478
F-0.20649978518486023
F0.40935423970222473
F-1.932604432106018
F1.0064436197280884
F-0.646916389465332
F-0.2124575674533844
F1.2231732606887817
F0.06811634451150894
F-0.15890651941299438
F-0.29020261764526367
F-0.24287506937980652
I-1
I355
tp1069
tp1070
Rp1071
ag1
(g2
g3
(F-0.1357179880142212
F-0.8719668984413147
F-0.2622193992137909
F0.39050668478012085
F4.59938907623291
F0.5654700398445129
F-0.6376082301139832
F-0.30137041211128235
F1.3306944370269775
F0.4613420069217682
F-0.20533987879753113
F-0.29771071672439575
F-0.3725292384624481
I-1
I356
tp1072
tp1073
Rp1074
ag1
(g2
g3
(F-0.02257630228996277
F-0.9004894495010376
F-0.08052783459424973
F0.42676037549972534
F4.567974090576172
F1.0727641582489014
F0.3665083646774292
F-0.18249668180942535
F1.8065400123596191
F0.8567413091659546
F-0.15173090994358063
F-0.4523996114730835
F-0.22939492762088776
I-1
I357
tp1075
tp1076
Rp1077
ag1
(g2
g3
(F0.0607374832034111
F-0.8726271390914917
F0.15441708266735077
F0.45933446288108826
F1.7429509162902832
F0.048867784440517426
F0.06166648864746094
F-0.2777239680290222
F-0.3859282433986664
F1.9490348100662231
F-0.16941340267658234
F-0.44791731238365173
F0.0427817776799202
I-1
I358
tp1078
tp1079
Rp1080
ag1
(g2
g3
(F0.0133516239002347
F-0.8941457867622375
F0.06676523387432098
F0.44256892800331116
F-3.2939212322235107
F-0.09889908134937286
F-0.8202806115150452
F-0.9276813268661499
F1.9861351251602173
F1.060580849647522
F-0.15847083926200867
F-0.3734814524650574
F-0.01969899609684944
I-1
I359
tp1081
tp1082
Rp1083
ag1
(g2
g3
(F-0.028585636988282204
F-0.901023268699646
F-0.0027120355516672134
F0.432819128036499
F-0.922670304775238
F-0.12915056943893433
F-0.41886672377586365
F0.04097297415137291
F1.174000859260559
F0.37671664357185364
F-0.1508629024028778
F-0.3238557279109955
F-0.06011934205889702
I-1
I360
tp1084
tp1085
Rp1086
ag1
(g2
g3
(F-0.014217945747077465
F-0.9081931114196777
F-0.05609437823295593
F0.41453173756599426
F0.033742040395736694
F-0.043050188571214676
F0.08144630491733551
F-0.07889574021100998
F0.9715502858161926
F0.15707916021347046
F-0.13543175160884857
F-0.32299989461898804
F-0.059061311185359955
I-1
I361
tp1087
tp1088
Rp1089
ag1
(g2
g3
(F-0.007710403762757778
F-0.9135369658470154
F-0.05805331468582153
F0.402517706155777
F0.038396116346120834
F-0.025597410276532173
F0.138458713889122
F-0.07646036893129349
F0.9841715693473816
F0.18556803464889526
F-0.1336328089237213
F-0.3193214237689972
F-0.05903613567352295
I-1
I362
tp1090
tp1091
Rp1092
ag1
(g2
g3
(F-0.006410883739590645
F-0.9199918508529663
F-0.059568848460912704
F0.3873310089111328
F0.039559632539749146
F-0.013962224125862122
F0.020943336188793182
F-0.07402873039245605
F0.9584353566169739
F0.16195309162139893
F-0.13724695146083832
F-0.32114624977111816
F-0.05814891308546066
I-1
I363
tp1093
tp1094
Rp1095
ag1
(g2
g3
(F-0.0023953402414917946
F-0.9291675090789795
F-0.06280292570590973
F0.3642770051956177
F-0.026760928332805634
F-0.018616298213601112
F-0.030251484364271164
F-0.06114667281508446
F0.9717883467674255
F0.1597622036933899
F-0.14176931977272034
F-0.31743013858795166
F-0.05448554828763008
I-1
I364
tp1096
tp1097
Rp1098
ag1
(g2
g3
(F-0.00508111622184515
F-0.9383155703544617
F-0.09283820539712906
F0.33304503560066223
F-0.9692110419273376
F-0.06632056087255478
F-0.12100593745708466
F-0.0893377959728241
F0.9907234907150269
F0.22549918293952942
F-0.13652054965496063
F-0.3064403235912323
F-0.07195046544075012
I-1
I365
tp1099
tp1100
Rp1101
ag1
(g2
g3
(F-0.12395735830068588
F-0.8960265517234802
F-0.23906828463077545
F0.35301175713539124
F4.558666229248047
F-0.11984241753816605
F-0.729526162147522
F-0.12022718042135239
F1.2451804876327515
F0.42487743496894836
F-0.28333285450935364
F-0.1831992268562317
F-0.4153604507446289
I-1
I366
tp1102
tp1103
Rp1104
ag1
(g2
g3
(F0.03569319099187851
F-0.8948414325714111
F0.15255723893642426
F0.4179844558238983
F3.1205570697784424
F0.13962224125862122
F0.7655952572822571
F0.07278528064489365
F0.510845422744751
F1.5186697244644165
F-0.17832688987255096
F-0.5225786566734314
F0.02312277816236019
I-1
I367
tp1105
tp1106
Rp1107
ag1
(g2
g3
(F0.03997935727238655
F-0.8840936422348022
F0.2000928670167923
F0.42040807008743286
F-1.4637064933776855
F-0.5456902384757996
F-1.2589272260665894
F0.08025947213172913
F0.597080409526825
F1.3523378372192383
F-0.20350129902362823
F-0.5048595070838928
F0.05987744778394699
I-1
I368
tp1108
tp1109
Rp1110
ag1
(g2
g3
(F0.036484599113464355
F-0.9077212810516357
F0.12569378316402435
F0.39863744378089905
F-2.720306634902954
F-2.069899559020996
F0.501476526260376
F-0.7052323222160339
F1.2212554216384888
F-0.7066125273704529
F-0.1838771402835846
F-0.5216641426086426
F0.011077068746089935
I-1
I369
tp1111
tp1112
Rp1113
ag1
(g2
g3
(F-0.005593933165073395
F-0.9333921670913696
F-0.04657290503382683
F0.35577917098999023
F-0.3455650210380554
F-0.11867889761924744
F-0.1722007542848587
F-0.126300647854805
F1.0900378227233887
F0.29341018199920654
F-0.2005995512008667
F-0.5090745687484741
F-0.13580764830112457
I-1
I370
tp1114
tp1115
Rp1116
ag1
(g2
g3
(F-0.0074796611443161964
F-0.9307172298431396
F-0.13629823923110962
F0.3393116295337677
F-0.8214441537857056
F0.036069076508283615
F0.048867784440517426
F-0.09153188765048981
F1.0072380304336548
F0.21794666349887848
F-0.2128346711397171
F-0.4980829656124115
F-0.18203924596309662
I-1
I371
tp1117
tp1118
Rp1119
ag1
(g2
g3
(F-0.025028184056282043
F-0.9218993186950684
F-0.1731753647327423
F0.34566670656204224
F-1.231002688407898
F0.10937075316905975
F0.032578520476818085
F-0.09260614961385727
F0.6757273077964783
F0.45908457040786743
F-0.2142079919576645
F-0.48068809509277344
F-0.2281605303287506
I-1
I372
tp1120
tp1121
Rp1122
ag1
(g2
g3
(F-0.11117824912071228
F-0.8532088398933411
F-0.3823947608470917
F0.3368208706378937
F-9.28371524810791
F-1.3438640832901
F1.994270920753479
F-0.5832808017730713
F1.0550507307052612
F-0.29647931456565857
F-0.21951398253440857
F-0.29228630661964417
F-0.43633124232292175
I-1
I373
tp1123
tp1124
Rp1125
ag1
(g2
g3
(F-0.16361689567565918
F-0.8164170980453491
F-0.4295428395271301
F0.3495504856109619
F3.8966238498687744
F-0.5072941184043884
F-1.0797452926635742
F0.1861061155796051
F0.9761058688163757
F0.12427113205194473
F-0.21546633541584015
F-0.29863378405570984
F-0.3901577889919281
I-1
I374
tp1126
tp1127
Rp1128
ag1
(g2
g3
(F0.0024972567334771156
F-0.9219986200332642
F-0.09726136922836304
F0.3747698664665222
F4.38530158996582
F0.275753915309906
F-0.15125742554664612
F-0.008418758399784565
F1.5741530656814575
F0.6198943257331848
F-0.22143271565437317
F-0.4206596314907074
F-0.19298605620861053
I-1
I375
tp1129
tp1130
Rp1131
ag1
(g2
g3
(F0.07329575717449188
F-0.9131917357444763
F0.14388003945350647
F0.374175488948822
F2.7098348140716553
F0.31647706031799316
F0.2408483624458313
F-0.44449153542518616
F0.21105168759822845
F1.6374295949935913
F-0.2729440927505493
F-0.4878055453300476
F0.11932748556137085
I-1
I376
tp1132
tp1133
Rp1134
ag1
(g2
g3
(F0.0807105153799057
F-0.9101269841194153
F0.14662449061870575
F0.37901976704597473
F-1.9547113180160522
F-0.7353437542915344
F-0.008144630119204521
F-0.6071009039878845
F1.5054208040237427
F0.16682815551757812
F-0.2666206359863281
F-0.4739997386932373
F0.12311072647571564
I-1
I377
tp1135
tp1136
Rp1137
ag1
(g2
g3
(F0.030580218881368637
F-0.9340418577194214
F0.0466400682926178
F0.3527821898460388
F-1.9384220838546753
F0.012798705138266087
F-0.07795574516057968
F0.4689416289329529
F1.8766597509384155
F0.33188432455062866
F-0.3089483380317688
F-0.4850688576698303
F0.04794584959745407
I-1
I378
tp1138
tp1139
Rp1140
ag1
(g2
g3
(F-0.0179952010512352
F-0.9579751491546631
F-0.05956954509019852
F0.28001999855041504
F-0.12216945737600327
F-0.05003130063414574
F0.022106854245066643
F-0.09735240787267685
F0.9581854939460754
F0.22842548787593842
F-0.32216957211494446
F-0.4990144371986389
F-0.020514637231826782
I-1
I379
tp1141
tp1142
Rp1143
ag1
(g2
g3
(F-0.058183372020721436
F-0.9510157704353333
F-0.10377918928861618
F0.28533050417900085
F3.276468515396118
F-0.5003130435943604
F-0.4688979983329773
F0.06531677395105362
F1.0999215841293335
F0.4276305139064789
F-0.19194291532039642
F-0.43633803725242615
F-0.14754162728786469
I-1
I380
tp1144
tp1145
Rp1146
ag1
(g2
g3
(F0.11056384444236755
F-0.8831989765167236
F0.0038510095328092575
F-0.4557635188102722
F0.5294010043144226
F0.4270113408565521
F-0.8586767315864563
F-1.9930161237716675
F1.9863499402999878
F1.2950562238693237
F0.2604963481426239
F-0.595421552658081
F0.04978083819150925
I-1
I381
tp1147
tp1148
Rp1149
ag1
(g2
g3
(F0.09636560827493668
F0.061167314648628235
F0.03389880433678627
F-0.9928862452507019
F-2.6539859771728516
F-0.5747781991958618
F-0.2292131781578064
F-1.2908787727355957
F0.9628486633300781
F0.2200884073972702
F0.22002620995044708
F-0.3320418894290924
F-0.09295355528593063
I-1
I382
tp1150
tp1151
Rp1152
ag1
(g2
g3
(F0.1261647343635559
F-0.028296872973442078
F0.07419032603502274
F-0.9888263940811157
F-0.13962224125862122
F-0.022106854245066643
F0.036069076508283615
F-0.10002340376377106
F0.9591546654701233
F0.2430352419614792
F0.2148626297712326
F-0.2796119153499603
F-0.13993805646896362
I-1
I383
tp1153
tp1154
Rp1155
ag1
(g2
g3
(F0.5424575805664062
F-0.05433880165219307
F-0.06962865591049194
F-0.8354274034500122
F1.5695866346359253
F1.392731785774231
F-0.9599028825759888
F0.1590460240840912
F0.9761675596237183
F-0.165025532245636
F0.13668353855609894
F-0.08359047770500183
F-0.37733152508735657
I-1
I384
tp1156
tp1157
Rp1158
ag1
(g2
g3
(F0.3810179829597473
F-0.05185970291495323
F-0.009813681244850159
F-0.9230599403381348
F4.353886604309082
F0.33625689148902893
F-0.3350933790206909
F-0.15833090245723724
F1.0596494674682617
F0.514028012752533
F0.168431356549263
F-0.3341848850250244
F-0.29371729493141174
I-1
I385
tp1159
tp1160
Rp1161
ag1
(g2
g3
(F-0.10400443524122238
F-0.0010399508755654097
F0.055374134331941605
F-0.9930335879325867
F-3.1193935871124268
F-0.2722633481025696
F-0.663205623626709
F-0.4634475111961365
F1.5389763116836548
F1.022795557975769
F0.21741630136966705
F-0.4802912771701813
F-0.04905816912651062
I-1
I386
tp1162
tp1163
Rp1164
ag1
(g2
g3
(F0.10250502079725266
F-0.04815180227160454
F0.023594073951244354
F-0.9932861924171448
F-0.002327037276700139
F-0.012798705138266087
F0.024433892220258713
F-0.10804233700037003
F0.9368169903755188
F0.23865431547164917
F0.20551541447639465
F-0.46486586332321167
F-0.16081584990024567
I-1
I387
tp1165
tp1166
Rp1167
ag1
(g2
g3
(F0.4249272644519806
F-0.06112334132194519
F-0.03709983825683594
F-0.9023992419242859
F-7.879348278045654
F-1.7604037523269653
F4.3364338874816895
F-0.3209628760814667
F1.5090123414993286
F0.06876496225595474
F0.14583320915699005
F-0.24233847856521606
F-0.45059749484062195
I-1
I388
tp1168
tp1169
Rp1170
ag1
(g2
g3
(F0.12497638165950775
F-0.06166034936904907
F-0.012248173356056213
F-0.9901660680770874
F4.509798049926758
F1.4241467714309692
F-0.16871020197868347
F-0.36580711603164673
F1.3316869735717773
F0.4328349530696869
F0.19018390774726868
F-0.45277100801467896
F-0.1433766633272171
I-1
I389
tp1171
tp1172
Rp1173
ag1
(g2
g3
(F-0.21681895852088928
F-0.10909298807382584
F0.007467553019523621
F-0.9700682759284973
F-4.309672832489014
F-1.50908362865448
F0.9040539860725403
F0.009686865843832493
F0.7515007853507996
F0.2757328450679779
F0.1470252424478531
F-0.3875718116760254
F0.044738467782735825
I-1
I390
tp1174
tp1175
Rp1176
ag1
(g2
g3
(F0.05679864436388016
F-0.07577455788850784
F-0.0003479784354567528
F-0.9955059885978699
F-0.052358340471982956
F-0.034905560314655304
F0.05817593261599541
F-0.09686730802059174
F0.9666837453842163
F0.23207664489746094
F0.11964404582977295
F-0.3850143551826477
F-0.08010978251695633
I-1
I391
tp1177
tp1178
Rp1179
ag1
(g2
g3
(F0.5052905678749084
F-0.08832521736621857
F-0.17846015095710754
F-0.8396618962287903
F2.322383165359497
F1.6010016202926636
F-1.4299644231796265
F0.012734641321003437
F0.7744075059890747
F-0.1513872593641281
F0.1041187196969986
F-0.23476174473762512
F-0.443551242351532
I-1
I392
tp1180
tp1181
Rp1182
ag1
(g2
g3
(F0.17260220646858215
F-0.11327146738767624
F-0.0413273423910141
F-0.9775838851928711
F4.678508281707764
F0.2722633481025696
F-0.7655952572822571
F0.0453503243625164
F1.3861945867538452
F0.5865828394889832
F0.24251501262187958
F-0.4232824742794037
F-0.05607675760984421
I-1
I393
tp1183
tp1184
Rp1185
ag1
(g2
g3
(F-0.20974914729595184
F-0.15728360414505005
F-0.02030671387910843
F-0.9648082256317139
F-0.8970728516578674
F0.23852132260799408
F-0.22223205864429474
F-0.15496811270713806
F0.7513992190361023
F1.0193709135055542
F0.2114514857530594
F-0.3405095636844635
F0.1764979511499405
I-1
I394
tp1186
tp1187
Rp1188
ag1
(g2
g3
(F0.051049329340457916
F-0.11051945388317108
F-0.007109588943421841
F-0.9925366044044495
F-0.8447145223617554
F-0.3060053884983063
F-0.18034538626670837
F0.007383506279438734
F1.3813773393630981
F0.4282926917076111
F0.24900943040847778
F-0.34482431411743164
F0.0014189044013619423
I-1
I395
tp1189
tp1190
Rp1191
ag1
(g2
g3
(F0.2264474779367447
F-0.3342176377773285
F-0.014701128005981445
F-0.9147698879241943
F-1.7196805477142334
F1.6184544563293457
F0.5724511742591858
F-0.7923973202705383
F1.2046773433685303
F-0.25102415680885315
F0.2241453230381012
F-0.32019364833831787
F-0.13627293705940247
I-1
I396
tp1192
tp1193
Rp1194
ag1
(g2
g3
(F0.17010733485221863
F-0.38856932520866394
F-0.0028946921229362488
F-0.9055765867233276
F1.861629843711853
F0.5899039506912231
F-0.018616298213601112
F0.09592549502849579
F0.9251270890235901
F0.156157985329628
F0.24236179888248444
F-0.29256781935691833
F-0.11388880759477615
I-1
I397
tp1195
tp1196
Rp1197
ag1
(g2
g3
(F0.05801732838153839
F-0.3347184360027313
F0.06944900751113892
F-0.9379629492759705
F2.1036417484283447
F-2.4573514461517334
F-0.7586141228675842
F0.3510932922363281
F0.9975635409355164
F0.7233431339263916
F0.2726563513278961
F-0.35811594128608704
F-0.10641653835773468
I-1
I398
tp1198
tp1199
Rp1200
ag1
(g2
g3
(F0.0943458154797554
F0.30689141154289246
F0.08662725239992142
F-0.943086564540863
F0.34091097116470337
F-4.686653137207031
F-0.42003023624420166
F0.07804708927869797
F0.7053236961364746
F0.39337417483329773
F0.08615372329950333
F-0.30816951394081116
F-0.3525117337703705
I-1
I399
tp1201
tp1202
Rp1203
ag1
(g2
g3
(F0.08212598413228989
F0.42696407437324524
F0.11956357955932617
F-0.8925589323043823
F-0.7248721122741699
F-0.49798598885536194
F0.3432379961013794
F-0.4378197193145752
F1.0867676734924316
F0.011347852647304535
F0.0423969067633152
F-0.28958046436309814
F-0.3666854798793793
I-1
I400
tp1204
tp1205
Rp1206
ag1
(g2
g3
(F0.12300733476877213
F0.46339550614356995
F0.11493748426437378
F-0.8700133562088013
F-0.015125742182135582
F0.005817593075335026
F-0.026760928332805634
F-0.11487090587615967
F0.9426614046096802
F0.16097179055213928
F0.03602084517478943
F-0.2877139449119568
F-0.3685815930366516
I-1
I401
tp1207
tp1208
Rp1209
ag1
(g2
g3
(F0.12805765867233276
F0.48381561040878296
F0.14408288896083832
F-0.8536766171455383
F-0.024433892220258713
F0.002327037276700139
F0.0011635186383500695
F-0.1309066265821457
F0.9591665863990784
F0.22013752162456512
F0.039481308311223984
F-0.27209365367889404
F-0.3805110454559326
I-1
I402
tp1210
tp1211
Rp1212
ag1
(g2
g3
(F0.1286303699016571
F0.4843391180038452
F0.14087772369384766
F-0.8538285493850708
F-0.23735779523849487
F-1.2926691770553589
F-1.4241467714309692
F0.2663150131702423
F1.0894858837127686
F0.13936728239059448
F0.040384791791439056
F-0.2711760699748993
F-0.380500853061676
I-1
I403
tp1213
tp1214
Rp1215
ag1
(g2
g3
(F0.09608538448810577
F0.6429970264434814
F0.18815858662128448
F-0.736151397228241
F0.824934720993042
F-6.609949588775635
F-1.8837367296218872
F0.31726133823394775
F0.993958055973053
F0.5728461146354675
F-0.02752661518752575
F-0.29113149642944336
F-0.37375250458717346
I-1
I404
tp1216
tp1217
Rp1218
ag1
(g2
g3
(F0.06782092899084091
F0.8043151497840881
F0.1719677448272705
F-0.5647164583206177
F1.4962849617004395
F-2.349144220352173
F-0.7562870979309082
F-0.16006159782409668
F1.208927035331726
F-0.42327091097831726
F-0.11554213613271713
F-0.34767231345176697
F-0.2952711582183838
I-1
I405
tp1219
tp1220
Rp1221
ag1
(g2
g3
(F0.01760794222354889
F0.8817284107208252
F0.06343665719032288
F-0.4671410024166107
F2.614426374435425
F-2.4410622119903564
F0.501476526260376
F0.12810924649238586
F1.373419165611267
F-0.015837593004107475
F-0.15020053088665009
F-0.38761213421821594
F-0.12213020026683807
I-1
I406
tp1222
tp1223
Rp1224
ag1
(g2
g3
(F-0.031358323991298676
F0.9235066771507263
F-0.06390352547168732
F-0.37691956758499146
F0.7074193358421326
F-0.615501344203949
F0.2559741139411926
F-0.07038481533527374
F0.43334755301475525
F0.6081646084785461
F-0.14941219985485077
F-0.39844366908073425
F-0.03445674479007721
I-1
I407
tp1225
tp1226
Rp1227
ag1
(g2
g3
(F0.01463425625115633
F0.9452438354492188
F0.18877743184566498
F-0.2658251225948334
F-1.6265990734100342
F-0.19081705808639526
F0.14311279356479645
F0.30718713998794556
F1.0311870574951172
F0.1876036822795868
F-0.13057802617549896
F-0.3914971947669983
F-0.1644347459077835
I-1
I408
tp1228
tp1229
Rp1230
ag1
(g2
g3
(F0.04189850389957428
F0.9396907687187195
F0.21684302389621735
F-0.2611604928970337
F-0.034905560314655304
F-0.11984241753816605
F0.5259104371070862
F-0.07477940618991852
F1.1320440769195557
F0.24568717181682587
F-0.13083229959011078
F-0.3832697570323944
F-0.19026222825050354
I-1
I409
tp1231
tp1232
Rp1233
ag1
(g2
g3
(F0.003574979491531849
F0.9211413860321045
F0.14970195293426514
F-0.3592701554298401
F-0.08260982483625412
F-0.032578520476818085
F-0.025597410276532173
F-0.09372252225875854
F0.9608681797981262
F0.16316522657871246
F-0.1354014128446579
F-0.37956804037094116
F-0.1921379566192627
I-1
I410
tp1234
tp1235
Rp1236
ag1
(g2
g3
(F0.005844790488481522
F0.9055747985839844
F0.1424400508403778
F-0.39951348304748535
F-0.22572261095046997
F-0.038396116346120834
F-0.008144630119204521
F-0.09663861244916916
F0.9601393938064575
F0.16827833652496338
F-0.1390705704689026
F-0.37771832942962646
F-0.19585704803466797
I-1
I411
tp1237
tp1238
Rp1239
ag1
(g2
g3
(F0.011090615764260292
F0.8958554863929749
F0.14476247131824493
F-0.41995692253112793
F-0.3339298367500305
F-0.044213708490133286
F0.009308149106800556
F-0.09882060438394547
F0.9591641426086426
F0.1918984353542328
F-0.13553881645202637
F-0.3713046908378601
F-0.20411773025989532
I-1
I412
tp1240
tp1241
Rp1242
ag1
(g2
g3
(F0.16296163201332092
F0.7926745414733887
F0.37868326902389526
F-0.4491209089756012
F-12.597415924072266
F-2.4503703117370605
F1.7185170650482178
F-0.64510577917099
F1.628581166267395
F-0.019003046676516533
F-0.15919412672519684
F-0.11551566421985626
F-0.40119099617004395
I-1
I413
tp1243
tp1244
Rp1245
ag1
(g2
g3
(F0.09833322465419769
F0.8542796969413757
F0.27030646800994873
F-0.4329795241355896
F4.417880058288574
F0.3188041150569916
F-0.3572002351284027
F-0.572205662727356
F1.1724549531936646
F0.3517245948314667
F-0.17546486854553223
F-0.3117081820964813
F-0.3880021870136261
I-1
I414
tp1246
tp1247
Rp1248
ag1
(g2
g3
(F-0.08946092426776886
F0.865577757358551
F-0.12639912962913513
F-0.47623011469841003
F-3.367223024368286
F-1.5940204858779907
F-1.0343680381774902
F0.5195852518081665
F0.2478533387184143
F0.976292073726654
F-0.13742586970329285
F-0.3522949516773224
F0.011923539452254772
I-1
I415
tp1249
tp1250
Rp1251
ag1
(g2
g3
(F-0.03264377638697624
F0.8999010920524597
F0.007180855609476566
F-0.4348112642765045
F-1.683611512184143
F0.010471668094396591
F1.173990249633789
F0.2700892686843872
F1.6623066663742065
F0.23398420214653015
F-0.10380472987890244
F-0.30103352665901184
F-0.06334695219993591
I-1
I416
tp1252
tp1253
Rp1254
ag1
(g2
g3
(F-0.014569277875125408
F0.8995570540428162
F0.09163690358400345
F-0.4268345832824707
F-0.16871020197868347
F-0.0570124126970768
F-0.023270372301340103
F-0.1002921611070633
F1.012101650238037
F0.19237498939037323
F-0.06793301552534103
F-0.2745630443096161
F-0.0998930111527443
I-1
I417
tp1255
tp1256
Rp1257
ag1
(g2
g3
(F-0.012976397760212421
F0.8837515711784363
F0.1282377988100052
F-0.44985535740852356
F-0.10820723325014114
F-0.016289260238409042
F0.05933944880962372
F-0.09273538738489151
F0.9528449177742004
F0.21357357501983643
F-0.07170818746089935
F-0.2662860155105591
F-0.1128271222114563
I-1
I418
tp1258
tp1259
Rp1260
ag1
(g2
g3
(F-0.00540215615183115
F0.8791816830635071
F0.1348639726638794
F-0.45697057247161865
F-0.6562244892120361
F-0.005817593075335026
F0.033742040395736694
F-0.12071329355239868
F1.0247302055358887
F0.21160471439361572
F-0.07179436087608337
F-0.262621134519577
F-0.12112616747617722
I-1
I419
tp1261
tp1262
Rp1263
ag1
(g2
g3
(F0.004415529780089855
F0.854003369808197
F0.1583547592163086
F-0.4955628216266632
F-1.592857003211975
F0.7539600729942322
F0.1954711377620697
F-0.3241172730922699
F1.4458837509155273
F0.032493237406015396
F-0.064867302775383
F-0.24891288578510284
F-0.1533392071723938
I-1
I420
tp1264
tp1265
Rp1266
ag1
(g2
g3
(F0.16610777378082275
F0.7728577852249146
F0.3708013892173767
F-0.4874477982521057
F4.721558570861816
F-0.8807836174964905
F-0.36069077253341675
F-0.37035053968429565
F0.7788050174713135
F0.19916985929012299
F-0.17507462203502655
F-0.2574230432510376
F-0.4210874140262604
I-1
I421
tp1267
tp1268
Rp1269
ag1
(g2
g3
(F-0.056781768798828125
F0.8533875346183777
F0.04455026239156723
F-0.51625657081604
F3.506845235824585
F0.9273243546485901
F0.18965353071689606
F-0.10057856887578964
F1.7247135639190674
F0.7114020586013794
F-0.11438525468111038
F-0.46700382232666016
F-0.11280079931020737
I-1
I422
tp1270
tp1271
Rp1272
ag1
(g2
g3
(F-0.08496703952550888
F0.839242696762085
F-0.09029272198677063
F-0.5294330716133118
F3.22178316116333
F0.015125742182135582
F0.5061306357383728
F-0.10869965702295303
F0.7603151202201843
F1.3218202590942383
F-0.15816695988178253
F-0.49399837851524353
F0.0612189844250679
I-1
I423
tp1273
tp1274
Rp1275
ag1
(g2
g3
(F-0.08014436811208725
F0.8484968543052673
F-0.09002716094255447
F-0.515291154384613
F-3.884988784790039
F-2.287477731704712
F0.3758165240287781
F-0.82848060131073
F0.7548781633377075
F-1.0859431028366089
F-0.14995042979717255
F-0.4820222854614258
F0.0733216404914856
I-1
I424
tp1276
tp1277
Rp1278
ag1
(g2
g3
(F-0.027457501739263535
F0.8736048340797424
F0.07096587121486664
F-0.4806500971317291
F-0.30251485109329224
F-0.06399352848529816
F-0.12333297729492188
F-0.16276273131370544
F0.9941402673721313
F0.22961972653865814
F-0.12100019305944443
F-0.48430734872817993
F-0.04551645368337631
I-1
I425
tp1279
tp1280
Rp1281
ag1
(g2
g3
(F-0.04499926045536995
F0.8978243470191956
F0.07454750686883926
F-0.43165871500968933
F-0.18616297841072083
F-0.037232596427202225
F0.1035531610250473
F-0.14038540422916412
F0.9613515138626099
F0.23523233830928802
F-0.12022514641284943
F-0.48435214161872864
F-0.061202745884656906
I-1
I426
tp1282
tp1283
Rp1284
ag1
(g2
g3
(F-0.04506271705031395
F0.9066123366355896
F0.0807238221168518
F-0.4117124676704407
F-0.022106854245066643
F-0.029087966307997704
F0.09889908134937286
F-0.1177813932299614
F0.9761613011360168
F0.22159864008426666
F-0.12114845961332321
F-0.4825073182582855
F-0.06212892010807991
I-1
I427
tp1285
tp1286
Rp1287
ag1
(g2
g3
(F-0.04661876708269119
F0.9202410578727722
F0.08377322554588318
F-0.37942734360694885
F-0.006981112062931061
F-0.034905560314655304
F0.046540744602680206
F-0.11194684356451035
F0.9521244764328003
F0.19603615999221802
F-0.12473546713590622
F-0.4834008514881134
F-0.05754657834768295
I-1
I428
tp1288
tp1289
Rp1290
ag1
(g2
g3
(F-0.04698935151100159
F0.9293869733810425
F0.08524350076913834
F-0.35604143142700195
F-0.07097464054822922
F-0.036069076508283615
F0.06399352848529816
F-0.09516464173793793
F0.9472598433494568
F0.2162526249885559
F-0.12297147512435913
F-0.48065605759620667
F-0.06213970482349396
I-1
I429
tp1291
tp1292
Rp1293
ag1
(g2
g3
(F-0.044259123504161835
F0.9415741562843323
F0.09297136962413788
F-0.320679634809494
F-0.07330167293548584
F-0.017452780157327652
F0.051194820553064346
F-0.09273847937583923
F0.9557607173919678
F0.2040761113166809
F-0.128439798951149
F-0.48063915967941284
F-0.06495599448680878
I-1
I430
tp1294
tp1295
Rp1296
ag1
(g2
g3
(F0.03092227317392826
F0.8945455551147461
F0.28490495681762695
F-0.34301772713661194
F-10.53449821472168
F-1.670812726020813
F0.4270113408565521
F-0.4272764325141907
F1.6632578372955322
F-0.0440363809466362
F-0.14637474715709686
F-0.36875468492507935
F-0.3038998544216156
I-1
I431
tp1297
tp1298
Rp1299
ag1
(g2
g3
(F-0.07071924209594727
F0.8675691485404968
F-0.18502117693424225
F-0.4561685025691986
F-2.8831992149353027
F-2.3026034832000732
F1.1507198810577393
F-1.1305948495864868
F0.938911497592926
F-0.5264682769775391
F-0.17921823263168335
F-0.4044443368911743
F0.08619832992553711
I-1
I432
tp1300
tp1301
Rp1302
ag1
(g2
g3
(F-0.03613077849149704
F0.9027386903762817
F-0.06620931625366211
F-0.4235254228115082
F-2.3340184688568115
F-0.5840863585472107
F-1.4625428915023804
F0.20584288239479065
F1.24337637424469
F0.5557247996330261
F-0.16077876091003418
F-0.41671594977378845
F0.006937163416296244
I-1
I433
tp1303
tp1304
Rp1305
ag1
(g2
g3
(F-0.030636517331004143
F0.971824586391449
F0.10079950839281082
F-0.2108500748872757
F-0.18150891363620758
F0.023270372301340103
F-0.036069076508283615
F-0.1090322732925415
F0.9618374705314636
F0.19359992444515228
F-0.16023367643356323
F-0.41590866446495056
F-0.03551899641752243
I-1
I434
tp1306
tp1307
Rp1308
ag1
(g2
g3
(F0.08059561997652054
F0.5406290292739868
F0.11613937467336655
F-0.829298734664917
F-0.9587393403053284
F6.968313217163086
F1.6766303777694702
F-0.2440645694732666
F0.6910511255264282
F0.5189470052719116
F0.04696439579129219
F-0.3400649130344391
F-0.2818535268306732
I-1
I435
tp1309
tp1310
Rp1311
ag1
(g2
g3
(F0.048453107476234436
F0.01545322872698307
F0.0600501149892807
F-0.9968990087509155
F1.0297139883041382
F1.2461284399032593
F0.09773556888103485
F-0.17110520601272583
F0.9565680623054504
F-0.10958461463451385
F0.16183748841285706
F-0.3927270472049713
F-0.1379232108592987
I-1
I436
tp1312
tp1313
Rp1314
ag1
(g2
g3
(F0.10108587145805359
F-0.024318989366292953
F0.04762081429362297
F-0.9934397339820862
F-0.002327037276700139
F-0.10937075316905975
F0.4910048544406891
F-0.06722657382488251
F1.0009255409240723
F0.1814274936914444
F0.1361313909292221
F-0.36040595173835754
F-0.1565210521221161
I-1
I437
tp1315
tp1316
Rp1317
ag1
(g2
g3
(F0.09899342805147171
F-0.007606674451380968
F0.02819245681166649
F-0.9946595430374146
F0.047704264521598816
F-0.006981112062931061
F0.031415004283189774
F-0.18610969185829163
F0.9601607322692871
F0.17069090902805328
F0.13249363005161285
F-0.36039233207702637
F-0.15747539699077606
I-1
I438
tp1318
tp1319
Rp1320
ag1
(g2
g3
(F0.08349508047103882
F0.08468978106975555
F0.01756475865840912
F-0.9927475452423096
F-0.8714754581451416
F0.09424500912427902
F-0.13147760927677155
F-0.15819109976291656
F0.9905335903167725
F0.03578760474920273
F0.11216116696596146
F-0.349342942237854
F-0.195468470454216
I-1
I439
tp1321
tp1322
Rp1323
ag1
(g2
g3
(F0.0901307538151741
F-0.06636825948953629
F0.01685405522584915
F-0.9935731291770935
F-0.5072941184043884
F-0.005817593075335026
F0.20128872990608215
F-0.12580545246601105
F0.9846614003181458
F0.22670869529247284
F0.19935563206672668
F-0.4786212146282196
F-0.14521227777004242
I-1
I440
tp1324
tp1325
Rp1326
ag1
(g2
g3
(F0.272978812456131
F-0.07051524519920349
F-0.03698824346065521
F-0.9587189555168152
F4.471402168273926
F-0.274590402841568
F-0.1710372418165207
F-0.28092655539512634
F0.8455857038497925
F0.07425898313522339
F0.18462197482585907
F-0.36383283138275146
F-0.32596510648727417
I-1
I441
tp1327
tp1328
Rp1329
ag1
(g2
g3
(F-0.28605177998542786
F-0.1617460399866104
F-0.013081587851047516
F-0.944373607635498
F0.2175779789686203
F0.19896169006824493
F1.7126994132995605
F0.7901718616485596
F-0.3149210512638092
F1.331992268562317
F0.15004952251911163
F-0.40012750029563904
F0.18135133385658264
I-1
I442
tp1330
tp1331
Rp1332
ag1
(g2
g3
(F0.0395132340490818
F-0.11401063203811646
F-0.014483386650681496
F-0.9925877451896667
F-0.09424500912427902
F-0.018616298213601112
F0.10588019341230392
F-0.1141444593667984
F0.9642714858055115
F0.1702212244272232
F0.1308555006980896
F-0.4320290684700012
F-0.06629088521003723
I-1
I443
tp1333
tp1334
Rp1335
ag1
(g2
g3
(F0.05396971106529236
F-0.1338270753622055
F-0.021602261811494827
F-0.9892982244491577
F-0.1500938981771469
F-0.032578520476818085
F0.023270372301340103
F-0.10125380009412766
F0.9589233994483948
F0.1841055452823639
F0.1290060430765152
F-0.4366459250450134
F-0.07278073579072952
I-1
I444
tp1336
tp1337
Rp1338
ag1
(g2
g3
(F0.09143595397472382
F-0.15359807014465332
F-0.02463129535317421
F-0.9835854768753052
F-0.5957215428352356
F-0.023270372301340103
F-0.016289260238409042
F-0.10709143429994583
F0.9861188530921936
F0.20041406154632568
F0.12962432205677032
F-0.4293561279773712
F-0.10321874171495438
I-1
I445
tp1339
tp1340
Rp1341
ag1
(g2
g3
(F0.25694137811660767
F-0.1507183015346527
F-0.06850145757198334
F-0.9521410465240479
F-8.910225868225098
F-1.9209692478179932
F1.2891786098480225
F-0.3204720616340637
F1.6223902702331543
F0.196829691529274
F0.1250954568386078
F-0.3782203793525696
F-0.29051366448402405
I-1
I446
tp1342
tp1343
Rp1344
ag1
(g2
g3
(F0.3840104043483734
F-0.168746218085289
F-0.11051298677921295
F-0.9010257720947266
F4.026937961578369
F0.08959093689918518
F-0.6643691658973694
F0.4708566963672638
F0.8480532169342041
F0.18256615102291107
F0.20561634004116058
F-0.43494734168052673
F-0.34812697768211365
I-1
I447
tp1345
tp1346
Rp1347
ag1
(g2
g3
(F-0.1726517677307129
F-0.22638168931007385
F0.010782383382320404
F-0.9585543870925903
F2.4922568798065186
F-0.5410361886024475
F-0.06981112062931061
F-0.29848259687423706
F0.4776808023452759
F1.4506431818008423
F0.22613053023815155
F-0.3054563105106354
F0.2136410027742386
I-1
I448
tp1348
tp1349
Rp1350
ag1
(g2
g3
(F0.029110990464687347
F-0.16327032446861267
F0.03111901879310608
F-0.9856606721878052
F0.002327037276700139
F-0.0570124126970768
F0.10122612118721008
F-0.13530166447162628
F0.9766624569892883
F0.1626647263765335
F0.2390194833278656
F-0.3161740303039551
F0.015255275182425976
I-1
I449
tp1351
tp1352
Rp1353
ag1
(g2
g3
(F0.11784668266773224
F-0.3497655391693115
F0.03816092386841774
F-0.9286118149757385
F-0.32462170720100403
F0.18965353071689606
F-0.0034905560314655304
F-0.1581282764673233
F0.9708202481269836
F0.2666388154029846
F0.23605167865753174
F-0.31716036796569824
F-0.014312304556369781
I-1
I450
tp1354
tp1355
Rp1356
ag1
(g2
g3
(F0.12103268504142761
F-0.7430565357208252
F0.01739516481757164
F-0.657963216304779
F-0.5084576606750488
F5.164859294891357
F1.7673847675323486
F0.021732930094003677
F0.7256618738174438
F0.7788324356079102
F0.11685208976268768
F-0.355848491191864
F0.1414891481399536
I-1
I451
tp1357
tp1358
Rp1359
ag1
(g2
g3
(F0.10144700109958649
F-0.9070954918861389
F-0.055202580988407135
F-0.404770165681839
F-1.6300896406173706
F4.832092761993408
F0.7481424808502197
F0.17867805063724518
F1.0075873136520386
F0.5883932709693909
F-0.03293232619762421
F-0.4068809151649475
F0.10775792598724365
I-1
I452
tp1360
tp1361
Rp1362
ag1
(g2
g3
(F0.11306852847337723
F-0.9560137987136841
F-0.10039158910512924
F-0.2513459622859955
F-1.6242719888687134
F3.746530055999756
F0.3816341161727905
F0.4090519845485687
F1.1103155612945557
F0.23875130712985992
F-0.06545979529619217
F-0.3940560817718506
F0.023509299382567406
I-1
I453
tp1363
tp1364
Rp1365
ag1
(g2
g3
(F0.11016799509525299
F-0.9797146320343018
F-0.1651623249053955
F-0.027271520346403122
F-1.33106529712677
F4.337597370147705
F0.9133621454238892
F-0.06210716813802719
F1.0198510885238647
F0.2542346715927124
F-0.1154748946428299
F-0.41140130162239075
F0.0018020316492766142
I-1
I454
tp1366
tp1367
Rp1368
ag1
(g2
g3
(F0.07454629987478256
F-0.9405226707458496
F-0.2101714015007019
F0.2562965452671051
F-1.6882655620574951
F1.0809087753295898
F0.6352812051773071
F0.8043588399887085
F0.771062970161438
F-0.1772429645061493
F-0.038502391427755356
F-0.4683704376220703
F-0.15369188785552979
I-1
I455
tp1369
tp1370
Rp1371
ag1
(g2
g3
(F-0.0007401779294013977
F-0.9271321296691895
F-0.18885251879692078
F0.32366690039634705
F0.7388343214988708
F0.646916389465332
F2.047792911529541
F-0.5727282762527466
F0.8362816572189331
F0.848792552947998
F-0.10196932405233383
F-0.461611807346344
F-0.1440654993057251
I-1
I456
tp1372
tp1373
Rp1374
ag1
(g2
g3
(F0.05586392804980278
F-0.9388803243637085
F-0.09684420377016068
F0.32558274269104004
F0.09773556888103485
F0.006981112062931061
F-0.11635186523199081
F-0.1416182965040207
F0.957723081111908
F0.1631537675857544
F-0.11962340027093887
F-0.4696846008300781
F-0.0897751972079277
I-1
I457
tp1375
tp1376
Rp1377
ag1
(g2
g3
(F0.061981815844774246
F-0.9398399591445923
F-0.09561583399772644
F0.3220507502555847
F0.0570124126970768
F-0.011635186150670052
F-0.07446519285440445
F-0.15231625735759735
F0.9552980065345764
F0.15974240005016327
F-0.11322018504142761
F-0.47061994671821594
F-0.08418397605419159
I-1
I458
tp1378
tp1379
Rp1380
ag1
(g2
g3
(F0.0661897212266922
F-0.9417039155960083
F-0.09557288140058517
F0.31571900844573975
F-0.024433892220258713
F-0.005817593075335026
F-0.004654074553400278
F-0.15523545444011688
F0.9635546803474426
F0.16120114922523499
F-0.10959374904632568
F-0.4734056293964386
F-0.08600636571645737
I-1
I459
tp1381
tp1382
Rp1383
ag1
(g2
g3
(F0.06500878185033798
F-0.9425159096717834
F-0.09671864658594131
F0.31318238377571106
F-0.06050296872854233
F0.018616298213601112
F0.08726389706134796
F-0.141626238822937
F0.9577291011810303
F0.13149745762348175
F-0.11324402689933777
F-0.4669359028339386
F-0.08509755879640579
I-1
I460
tp1384
tp1385
Rp1386
ag1
(g2
g3
(F0.05729017034173012
F-0.9402257800102234
F-0.10047286003828049
F0.3203098475933075
F-1.1425752639770508
F0.1605655699968338
F0.14078575372695923
F-0.1625697910785675
F1.008259892463684
F0.04357543960213661
F-0.11704917997121811
F-0.46789658069610596
F-0.10636429488658905
I-1
I461
tp1387
tp1388
Rp1389
a.