(lp0
ccopy_reg
_reconstructor
p1
(c__main__
DataEntry
p2
c__builtin__
tuple
p3
(F0.36876723170280457
F-0.5474340319633484
F-0.737080454826355
F-0.14504969120025635
F-0.06050296872854233
F0.8738024830818176
F-0.06748408079147339
F-0.05407178774476051
F-0.3384345471858978
F0.9200088977813721
F0.06805625557899475
F-0.08011726289987564
F-0.5258915424346924
I-1
I0
tp4
tp5
Rp6
ag1
(g2
g3
(F0.3864034414291382
F-0.5292627811431885
F-0.734563946723938
F-0.1760379672050476
F1.173990249633789
F-1.6265990734100342
F0.4235207736492157
F0.01635878160595894
F0.07434409111738205
F1.0139427185058594
F0.04945586621761322
F-0.10496996343135834
F-0.5121665000915527
I-1
I1
tp7
tp8
Rp9
ag1
(g2
g3
(F0.24817968904972076
F-0.5315537452697754
F-0.7306870818138123
F-0.349219411611557
F-0.5096211433410645
F-0.029087966307997704
F-0.5596524477005005
F-0.5355426073074341
F-0.2906748652458191
F0.6707679033279419
F-0.14574573934078217
F-0.16961051523685455
F-0.46075689792633057
I-1
I2
tp10
tp11
Rp12
ag1
(g2
g3
(F0.25791898369789124
F-0.5257800817489624
F-0.741332471370697
F-0.32780998945236206
F-0.2722633481025696
F0.6853124499320984
F1.2717258930206299
F-0.09525825083255768
F-0.005489979404956102
F0.8546742796897888
F-0.1417660117149353
F-0.14673808217048645
F-0.4652365446090698
I-1
I3
tp13
tp14
Rp15
ag1
(g2
g3
(F0.24454697966575623
F-0.5114465951919556
F-0.7688298225402832
F-0.295837938785553
F-0.9087080359458923
F-0.19663465023040771
F-1.4450901746749878
F0.6507837176322937
F-0.04509430751204491
F1.2956225872039795
F-0.1510845124721527
F-0.09753546863794327
F-0.4658408761024475
I-1
I4
tp16
tp17
Rp18
ag1
(g2
g3
(F0.3369516134262085
F-0.5229843854904175
F-0.7636817693710327
F-0.17245715856552124
F-0.025597410276532173
F0.8563497066497803
F0.8679848909378052
F-0.09976768493652344
F-0.3333343267440796
F0.9745426774024963
F-0.045026995241642
F-0.07963474839925766
F-0.4796009361743927
I-1
I5
tp19
tp20
Rp21
ag1
(g2
g3
(F0.3530693054199219
F-0.5404360890388489
F-0.7460496425628662
F-0.16334335505962372
F-0.051194820553064346
F1.2659082412719727
F-0.25713762640953064
F-0.1204657107591629
F-0.3180094361305237
F0.862032949924469
F0.023339301347732544
F-0.08228950202465057
F-0.4786839783191681
I-1
I6
tp22
tp23
Rp24
ag1
(g2
g3
(F0.37464869022369385
F-0.5350872874259949
F-0.7433847784996033
F-0.14387239515781403
F0.07097464054822922
F-0.31415003538131714
F1.6731398105621338
F-0.11844491213560104
F-0.43824678659439087
F1.0468804836273193
F0.05347205698490143
F-0.07996971905231476
F-0.4703308939933777
I-1
I7
tp25
tp26
Rp27
ag1
(g2
g3
(F0.28393128514289856
F-0.5900074243545532
F-0.7430810332298279
F-0.13822084665298462
F1.2461284399032593
F-1.9663465023040771
F0.9948084354400635
F-0.28951430320739746
F0.00013799328007735312
F0.8780012726783752
F-0.02191394753754139
F-0.12118863314390182
F-0.45764610171318054
I-1
I8
tp28
tp29
Rp30
ag1
(g2
g3
(F0.1810254603624344
F-0.5732654333114624
F-0.7576481699943542
F-0.2540985643863678
F-0.7935197353363037
F0.2420118749141693
F-1.5463162660598755
F-0.17926892638206482
F-0.355167418718338
F0.9618643522262573
F-0.12982983887195587
F-0.1416778713464737
F-0.41612255573272705
I-1
I9
tp31
tp32
Rp33
ag1
(g2
g3
(F0.3284454047679901
F-0.5280834436416626
F-0.7122780680656433
F-0.3254406750202179
F0.4944954216480255
F1.2065688371658325
F-3.872189998626709
F0.11364563554525375
F-0.15562516450881958
F0.9302436113357544
F-0.032393939793109894
F-0.15222975611686707
F-0.43007028102874756
I-1
I10
tp34
tp35
Rp36
ag1
(g2
g3
(F0.49582257866859436
F-0.4653107225894928
F-0.60927414894104
F-0.4079594910144806
F-0.9715380668640137
F1.0564749240875244
F-3.8547372817993164
F-0.6019613742828369
F0.07598286122083664
F0.849904477596283
F0.10316389799118042
F-0.11279310286045074
F-0.4297950565814972
I-1
I11
tp37
tp38
Rp39
ag1
(g2
g3
(F0.6017964482307434
F-0.38093259930610657
F-0.5439696311950684
F-0.44365373253822327
F-0.6480798721313477
F0.8086454272270203
F-1.5509703159332275
F0.03597603365778923
F-0.4839538037776947
F1.1365396976470947
F0.17920459806919098
F-0.02665153332054615
F-0.42088648676872253
I-1
I12
tp40
tp41
Rp42
ag1
(g2
g3
(F0.6828572750091553
F-0.3162809908390045
F-0.45448625087738037
F-0.4765655994415283
F-0.10006260126829147
F0.8900917768478394
F-1.97332763671875
F0.14091071486473083
F-0.29695984721183777
F0.9307644963264465
F0.19968733191490173
F0.00202753534540534
F-0.41236165165901184
I-1
I13
tp43
tp44
Rp45
ag1
(g2
g3
(F0.7179815173149109
F-0.26466795802116394
F-0.3963163495063782
F-0.5073332190513611
F0.055848896503448486
F0.7621046900749207
F-2.158327102661133
F-0.24952758848667145
F-0.46829327940940857
F0.8751786947250366
F0.223200723528862
F0.05091381072998047
F-0.3944436013698578
I-1
I14
tp46
tp47
Rp48
ag1
(g2
g3
(F0.7505555152893066
F-0.23908790946006775
F-0.3408758044242859
F-0.5131347179412842
F-0.023270372301340103
F0.6760043501853943
F-1.4706875085830688
F-0.41052186489105225
F-0.25019943714141846
F0.9174672365188599
F0.2335822880268097
F0.0748770609498024
F-0.3859509229660034
I-1
I15
tp49
tp50
Rp51
ag1
(g2
g3
(F0.7621862292289734
F-0.2351934164762497
F-0.29794642329216003
F-0.5243894457817078
F0.11053427308797836
F0.6166648864746094
F-0.986663818359375
F-0.048720572143793106
F-0.3114882707595825
F0.9555575847625732
F0.2429862767457962
F0.09428714960813522
F-0.37285807728767395
I-1
I16
tp52
tp53
Rp54
ag1
(g2
g3
(F0.7802874445915222
F-0.198639914393425
F-0.22414721548557281
F-0.5490464568138123
F0.16521964967250824
F-0.07911926507949829
F-0.10238964110612869
F-0.18391139805316925
F-0.27357247471809387
F0.9494285583496094
F0.2397889941930771
F0.1253271847963333
F-0.36987677216529846
I-1
I17
tp55
tp56
Rp57
ag1
(g2
g3
(F0.7290614247322083
F-0.007708504796028137
F-0.13196571171283722
F-0.6715617179870605
F-0.7446519136428833
F0.36185428500175476
F-3.5661845207214355
F-0.030023330822587013
F-0.42218559980392456
F0.7537136673927307
F0.13266640901565552
F0.16010454297065735
F-0.40299859642982483
I-1
I18
tp58
tp59
Rp60
ag1
(g2
g3
(F0.7528042197227478
F0.1646876335144043
F0.08059608936309814
F-0.632193386554718
F-0.33625689148902893
F-0.18034538626670837
F0.16638316214084625
F0.2775631844997406
F-0.33390703797340393
F0.949312686920166
F0.06865348666906357
F0.2737257778644562
F-0.35132965445518494
I-1
I19
tp61
tp62
Rp63
ag1
(g2
g3
(F0.7705450057983398
F0.16938358545303345
F0.09224028885364532
F-0.6075043082237244
F-0.3001877963542938
F-0.2164144665002823
F-0.6364446878433228
F0.2661665678024292
F-0.4087056815624237
F0.9980261325836182
F0.062375035136938095
F0.2809806764125824
F-0.3457266688346863
I-1
I20
tp64
tp65
Rp66
ag1
(g2
g3
(F0.7589202523231506
F0.2049071490764618
F0.12712576985359192
F-0.6048902869224548
F0.031415004283189774
F-0.07330167293548584
F-0.5561618804931641
F0.05969269573688507
F-0.23113523423671722
F0.9438810348510742
F0.03966093063354492
F0.28702881932258606
F-0.3484678268432617
I-1
I21
tp67
tp68
Rp69
ag1
(g2
g3
(F0.7623178362846375
F0.18445485830307007
F0.14198647439479828
F-0.6038938164710999
F0.029087966307997704
F0.40955856442451477
F-0.18849001824855804
F0.1773587465286255
F-0.2520369589328766
F0.889124870300293
F0.057074785232543945
F0.2928067147731781
F-0.34194567799568176
I-1
I22
tp70
tp71
Rp72
ag1
(g2
g3
(F0.7602113485336304
F0.18653953075408936
F0.15366290509700775
F-0.6030502319335938
F-0.14660334587097168
F0.36185428500175476
F-0.6946206092834473
F-0.1469532549381256
F-0.3262680768966675
F0.9080512523651123
F0.05625462159514427
F0.29916730523109436
F-0.345608115196228
I-1
I23
tp73
tp74
Rp75
ag1
(g2
g3
(F0.762698769569397
F0.15682995319366455
F0.17498911917209625
F-0.6025561094284058
F-0.1256600171327591
F0.6259730458259583
F1.0297139883041382
F-0.1464383602142334
F-0.3634362518787384
F0.9859816431999207
F0.08725982159376144
F0.2987584173679352
F-0.3372727930545807
I-1
I24
tp76
tp77
Rp78
ag1
(g2
g3
(F0.7653894424438477
F0.12261202931404114
F0.1738375425338745
F-0.6073927283287048
F0.09075445681810379
F0.8377334475517273
F0.8784565925598145
F-0.023435497656464577
F-0.30882346630096436
F0.9565374255180359
F0.11546072363853455
F0.2937038838863373
F-0.3345244526863098
I-1
I25
tp79
tp80
Rp81
ag1
(g2
g3
(F0.7569948434829712
F0.07814812660217285
F0.20530658960342407
F-0.6153869032859802
F-0.1256600171327591
F0.5829228162765503
F0.1500938981771469
F0.18322597444057465
F-0.3567037582397461
F0.9154453873634338
F0.18203479051589966
F0.2930244505405426
F-0.30674004554748535
I-1
I26
tp82
tp83
Rp84
ag1
(g2
g3
(F0.753000020980835
F0.18074266612529755
F-0.0498235821723938
F-0.6307463049888611
F0.06283000856637955
F-0.6061931848526001
F-2.4445526599884033
F-0.018149465322494507
F-0.07448799908161163
F0.9338476061820984
F0.019059570506215096
F0.25066009163856506
F-0.4153827428817749
I-1
I27
tp85
tp86
Rp87
ag1
(g2
g3
(F0.7514570355415344
F0.2277524322271347
F0.024505168199539185
F-0.6187413334846497
F0.06632056087255478
F0.3676718771457672
F-0.037232596427202225
F0.10884203761816025
F-0.38631606101989746
F0.9412444233894348
F0.010659657418727875
F0.3000679314136505
F-0.3863528370857239
I-1
I28
tp88
tp89
Rp90
ag1
(g2
g3
(F0.7697436809539795
F0.1681405007839203
F0.10086564719676971
F-0.607494592666626
F-0.15707501769065857
F0.3793070614337921
F-0.28040799498558044
F0.19220371544361115
F-0.13187183439731598
F1.0617542266845703
F0.020948750898241997
F0.3176453709602356
F-0.37605002522468567
I-1
I29
tp91
tp92
Rp93
ag1
(g2
g3
(F0.7649346590042114
F0.17175482213497162
F0.13593429327011108
F-0.6057205200195312
F-0.07446519285440445
F0.7493060231208801
F-0.055848896503448486
F-0.4333133101463318
F-0.49157142639160156
F0.9330922365188599
F0.02097528614103794
F0.3194732964038849
F-0.3760380148887634
I-1
I30
tp94
tp95
Rp96
ag1
(g2
g3
(F0.7531333565711975
F0.10735665261745453
F0.19545817375183105
F-0.6189192533493042
F0.12449649721384048
F1.3531721830368042
F-0.23154020309448242
F0.02030746079981327
F-0.30032119154930115
F0.8837373852729797
F0.12760601937770844
F0.31380388140678406
F-0.36217185854911804
I-1
I31
tp97
tp98
Rp99
ag1
(g2
g3
(F0.7487232089042664
F0.08429953455924988
F0.23050540685653687
F-0.6157715916633606
F-0.1722007542848587
F0.7190545201301575
F-0.045377228409051895
F0.14430706202983856
F-0.35692331194877625
F0.8428696990013123
F0.16238123178482056
F0.3217218220233917
F-0.3463732600212097
I-1
I32
tp100
tp101
Rp102
ag1
(g2
g3
(F0.7553349137306213
F0.08745226263999939
F0.24456296861171722
F-0.6016731262207031
F-0.018616298213601112
F0.08493685722351074
F-0.14194928109645844
F-0.39708179235458374
F-0.49643993377685547
F0.9491739869117737
F0.16067655384540558
F0.3299330472946167
F-0.34446755051612854
I-1
I33
tp103
tp104
Rp105
ag1
(g2
g3
(F0.7591342329978943
F0.05579720810055733
F0.20719239115715027
F-0.6145514845848083
F1.1728267669677734
F-1.6242719888687134
F0.6410987973213196
F-0.2651686370372772
F-0.012760411947965622
F0.9956251978874207
F0.16103646159172058
F0.2922215163707733
F-0.38360795378685
I-1
I34
tp106
tp107
Rp108
ag1
(g2
g3
(F0.7388923168182373
F0.20355971157550812
F0.043981194496154785
F-0.6408333778381348
F-0.27109983563423157
F-0.17569132149219513
F-2.4119741916656494
F-0.24133431911468506
F-0.2686691880226135
F0.777738630771637
F-0.05188823118805885
F0.26412278413772583
F-0.4347495436668396
I-1
I35
tp109
tp110
Rp111
ag1
(g2
g3
(F0.7690175175666809
F0.20319800078868866
F0.09906214475631714
F-0.5979210138320923
F0.046540744602680206
F-0.9645569324493408
F-2.2828235626220703
F0.1956668645143509
F-0.5303305983543396
F0.9113420248031616
F-0.02540617063641548
F0.32877832651138306
F-0.3870949447154999
I-1
I36
tp112
tp113
Rp114
ag1
(g2
g3
(F0.7455651760101318
F0.22669582068920135
F0.22224178910255432
F-0.585961103439331
F0.06399352848529816
F0.5852499008178711
F-0.38279762864112854
F0.14528681337833405
F-0.2134421169757843
F1.010864496231079
F-0.04720425605773926
F0.3349536657333374
F-0.37224069237709045
I-1
I37
tp115
tp116
Rp117
ag1
(g2
g3
(F0.7057449817657471
F0.18907999992370605
F0.34864699840545654
F-0.5870420336723328
F0.013962224125862122
F0.3432379961013794
F-0.8970728516578674
F-0.15520168840885162
F-0.4904034733772278
F0.8204169273376465
F0.0822984129190445
F0.3341618478298187
F-0.3620438277721405
I-1
I38
tp118
tp119
Rp120
ag1
(g2
g3
(F0.7099733352661133
F0.18595606088638306
F0.3497927784919739
F-0.5822399258613586
F0.017452780157327652
F-0.5643065571784973
F1.6149638891220093
F-0.07635634392499924
F-0.418854683637619
F1.1737561225891113
F0.0785963162779808
F0.3304528594017029
F-0.36206862330436707
I-1
I39
tp121
tp122
Rp123
ag1
(g2
g3
(F0.7205719351768494
F0.18270538747310638
F0.2956635355949402
F-0.5999817848205566
F1.0890533924102783
F-1.4125115871429443
F0.30367836356163025
F0.12286194413900375
F-0.003140193410217762
F0.988172173500061
F0.07281344383955002
F0.3092259466648102
F-0.38165509700775146
I-1
I40
tp124
tp125
Rp126
ag1
(g2
g3
(F0.6894190907478333
F0.30417054891586304
F0.2565869688987732
F-0.6052643060684204
F-0.24782946705818176
F0.6410987973213196
F1.3077949285507202
F0.4547002911567688
F0.01744130626320839
F0.8747761249542236
F-0.077244833111763
F0.27605876326560974
F-0.3689265847206116
I-1
I41
tp127
tp128
Rp129
ag1
(g2
g3
(F0.7254632115364075
F0.2995791435241699
F0.21975156664848328
F-0.5793660879135132
F-0.10006260126829147
F0.28389856219291687
F-1.6103098392486572
F-0.2909489870071411
F-0.2144448459148407
F1.7332489490509033
F-0.07513455301523209
F0.29549461603164673
F-0.33546194434165955
I-1
I42
tp130
tp131
Rp132
ag1
(g2
g3
(F0.7645151019096375
F0.08568305522203445
F0.14887012541294098
F-0.6212993860244751
F0.024433892220258713
F-0.5712876319885254
F2.0303399562835693
F-0.2989373803138733
F-0.26891207695007324
F0.8517512083053589
F0.12763719260692596
F0.25282078981399536
F-0.3255309462547302
I-1
I43
tp133
tp134
Rp135
ag1
(g2
g3
(F0.7859871983528137
F-0.036001309752464294
F0.05723842978477478
F-0.6145340204238892
F-0.5212563276290894
F-1.1472294330596924
F4.167723655700684
F-0.11483362317085266
F-0.4503600001335144
F0.8932288885116577
F0.18361124396324158
F0.21336863934993744
F-0.33504316210746765
I-1
I44
tp136
tp137
Rp138
ag1
(g2
g3
(F0.7805463671684265
F-0.16258196532726288
F-0.13383889198303223
F-0.588559091091156
F-0.35138264298439026
F-1.4020400047302246
F4.450459003448486
F-0.18872611224651337
F-0.48556041717529297
F0.934370219707489
F0.2272588014602661
F0.14167089760303497
F-0.3577328026294708
I-1
I45
tp139
tp140
Rp141
ag1
(g2
g3
(F0.6892880201339722
F-0.33878692984580994
F-0.3874197006225586
F-0.5099133849143982
F-0.1849994659423828
F-1.205405354499817
F4.369012355804443
F0.28196391463279724
F-0.5150454640388489
F0.8706946969032288
F0.22047334909439087
F-0.011280938982963562
F-0.3976300060749054
I-1
I46
tp142
tp143
Rp144
ag1
(g2
g3
(F0.3573213219642639
F-0.47060444951057434
F-0.740831732749939
F-0.31940823793411255
F0.13031408190727234
F0.8691484332084656
F1.107669711112976
F-0.008637879975140095
F-0.28573712706565857
F0.846470296382904
F-0.05966902896761894
F-0.08277488499879837
F-0.5083300471305847
I-1
I47
tp145
tp146
Rp147
ag1
(g2
g3
(F0.4428326189517975
F-0.521450400352478
F-0.7043169140815735
F-0.18954311311244965
F0.617828369140625
F-1.0611289739608765
F-0.15474797785282135
F0.18836255371570587
F-0.25038787722587585
F1.1414036750793457
F0.11527135223150253
F-0.09486289322376251
F-0.5102401375770569
I-1
I48
tp148
tp149
Rp150
ag1
(g2
g3
(F0.39960166811943054
F-0.5359365344047546
F-0.7090281248092651
F-0.2244323194026947
F1.164682149887085
F-2.13854718208313
F0.4107220768928528
F-0.3862344026565552
F-0.09698760509490967
F0.9646850228309631
F0.0647253692150116
F-0.12119593471288681
F-0.5122711062431335
I-1
I49
tp151
tp152
Rp153
ag1
(g2
g3
(F0.3420991003513336
F-0.5450206995010376
F-0.7225947380065918
F-0.2525424063205719
F0.17685483396053314
F-2.3724145889282227
F1.3624802827835083
F-0.21446514129638672
F-0.2452200949192047
F1.2976347208023071
F-0.006722467485815287
F-0.14233829081058502
F-0.5124184489250183
I-1
I50
tp154
tp155
Rp156
ag1
(g2
g3
(F0.25078386068344116
F-0.5403234958648682
F-0.7585715055465698
F-0.26405948400497437
F-0.11286130547523499
F-1.7068818807601929
F0.2966972589492798
F0.08546192944049835
F-0.15636129677295685
F1.0064553022384644
F-0.11152254045009613
F-0.1364564299583435
F-0.4975762367248535
I-1
I51
tp157
tp158
Rp159
ag1
(g2
g3
(F0.2396652102470398
F-0.5349340438842773
F-0.7567005157470703
F-0.28950080275535583
F-0.2641187310218811
F-0.40839505195617676
F-2.480621814727783
F0.01057293452322483
F-0.1934855729341507
F0.9501927495002747
F-0.14348872005939484
F-0.13958477973937988
F-0.4855623245239258
I-1
I52
tp160
tp161
Rp162
ag1
(g2
g3
(F0.26598700881004333
F-0.5193013548851013
F-0.7449718713760376
F-0.32341012358665466
F-0.10820723325014114
F-0.137295201420784
F-2.29329514503479
F-0.12125135213136673
F-0.20846985280513763
F0.7443965077400208
F-0.1309027075767517
F-0.15218865871429443
F-0.4847174286842346
I-1
I53
tp163
tp164
Rp165
ag1
(g2
g3
(F0.2606807351112366
F-0.4970267713069916
F-0.790876030921936
F-0.24397818744182587
F-0.10820723325014114
F-0.7621046900749207
F-1.6859384775161743
F0.6598082780838013
F-0.44814422726631165
F1.019074559211731
F-0.1513923704624176
F-0.055685855448246
F-0.4933471381664276
I-1
I54
tp166
tp167
Rp168
ag1
(g2
g3
(F0.297856867313385
F-0.4788612723350525
F-0.7770856022834778
F-0.279483824968338
F-0.9110351204872131
F0.20361575484275818
F-1.6265990734100342
F1.1633872985839844
F-0.6670613884925842
F1.0365322828292847
F-0.13334646821022034
F-0.06913608312606812
F-0.49435916543006897
I-1
I55
tp169
tp170
Rp171
ag1
(g2
g3
(F0.3677788972854614
F-0.48451292514801025
F-0.764251708984375
F-0.2142554372549057
F-0.07213815301656723
F0.9145256280899048
F0.7737398743629456
F-0.22690649330615997
F-0.4828735888004303
F0.9009992480278015
F-0.06837907433509827
F-0.05453839153051376
F-0.502589762210846
I-1
I56
tp172
tp173
Rp174
ag1
(g2
g3
(F0.1839035302400589
F-0.5836626887321472
F-0.771186888217926
F-0.1754658967256546
F0.10122612118721008
F-1.5474797487258911
F-0.11053427308797836
F0.1095140278339386
F-0.11799339950084686
F0.9730931520462036
F-0.14045411348342896
F-0.11925764381885529
F-0.4576478600502014
I-1
I57
tp175
tp176
Rp177
ag1
(g2
g3
(F0.2524646818637848
F-0.5422540903091431
F-0.7683399319648743
F-0.22776316106319427
F-0.20012520253658295
F0.5689606070518494
F0.19779816269874573
F-0.08386679738759995
F0.044305529445409775
F0.7611598372459412
F-0.13591818511486053
F-0.12098326534032822
F-0.4521024823188782
I-1
I58
tp178
tp179
Rp180
ag1
(g2
g3
(F0.2589298188686371
F-0.5457444787025452
F-0.7693930864334106
F-0.2077324539422989
F-0.21990501880645752
F-0.9703745245933533
F-0.9331419467926025
F0.7605111002922058
F-0.5263818502426147
F1.131129503250122
F-0.16057173907756805
F-0.06010053679347038
F-0.44892802834510803
I-1
I59
tp181
tp182
Rp183
ag1
(g2
g3
(F0.22541087865829468
F-0.5200580954551697
F-0.8031631708145142
F-0.18346267938613892
F-0.35952726006507874
F-0.1477668732404709
F-3.917567253112793
F1.2150810956954956
F-0.9230849742889404
F1.3857874870300293
F-0.1441909372806549
F-0.06260362267494202
F-0.44894248247146606
I-1
I60
tp184
tp185
Rp186
ag1
(g2
g3
(F0.14109767973423004
F-0.6047789454460144
F-0.7754375338554382
F-0.1141519844532013
F0.31531354784965515
F-0.7306897044181824
F-0.20245224237442017
F0.09997064620256424
F0.0454508513212204
F0.8875875473022461
F-0.14648738503456116
F-0.09535930305719376
F-0.42230290174484253
I-1
I61
tp187
tp188
Rp189
ag1
(g2
g3
(F0.14544561505317688
F-0.596639096736908
F-0.7829079031944275
F-0.09961233288049698
F-0.16289260983467102
F0.32462170720100403
F-0.503803551197052
F0.2852995991706848
F-0.2209799587726593
F0.8847629427909851
F-0.12082759290933609
F-0.08684597909450531
F-0.435208261013031
I-1
I62
tp190
tp191
Rp192
ag1
(g2
g3
(F0.1588243693113327
F-0.5836479067802429
F-0.7860608696937561
F-0.1274295300245285
F-0.044213708490133286
F0.32927578687667847
F-0.5631430149078369
F0.22982372343540192
F-0.15246853232383728
F0.7827052474021912
F-0.11348992586135864
F-0.08400390297174454
F-0.43611475825309753
I-1
I63
tp193
tp194
Rp195
ag1
(g2
g3
(F0.16825886070728302
F-0.5789197683334351
F-0.7854254841804504
F-0.14017058908939362
F-0.3013513386249542
F0.17918187379837036
F-0.8993999361991882
F0.3278988003730774
F-0.30236291885375977
F1.010927438735962
F-0.10438083857297897
F-0.08479119092226028
F-0.43704482913017273
I-1
I64
tp196
tp197
Rp198
ag1
(g2
g3
(F0.4370947778224945
F-0.4935789108276367
F-0.6849015355110168
F-0.31022271513938904
F0.3188041150569916
F-0.24899299442768097
F-0.438646525144577
F0.5887048840522766
F0.018349390476942062
F1.0355262756347656
F0.19651459157466888
F0.034835536032915115
F-0.418628990650177
I-1
I65
tp199
tp200
Rp201
ag1
(g2
g3
(F0.7762413620948792
F-0.14114217460155487
F-0.27515730261802673
F-0.5493785738945007
F0.11867889761924744
F0.9273243546485901
F-1.7348062992095947
F-0.09975940734148026
F-0.4724573791027069
F0.8725385665893555
F0.21377022564411163
F0.1550675481557846
F-0.3752410113811493
I-1
I66
tp202
tp203
Rp204
ag1
(g2
g3
(F0.8077256679534912
F-0.08381813764572144
F-0.12328523397445679
F-0.5703988075256348
F0.4712250530719757
F0.20012520253658295
F-1.0925439596176147
F-0.23545829951763153
F-0.317987322807312
F0.8926861882209778
F0.21085593104362488
F0.2054329663515091
F-0.3517603278160095
I-1
I67
tp205
tp206
Rp207
ag1
(g2
g3
(F0.8028947114944458
F-0.0806221067905426
F-0.09523183107376099
F-0.582916259765625
F0.26644575595855713
F0.14078575372695923
F0.0919179692864418
F-0.062344327569007874
F-0.23621466755867004
F0.9947448372840881
F0.20711344480514526
F0.19896408915519714
F-0.3545813262462616
I-1
I68
tp208
tp209
Rp210
ag1
(g2
g3
(F0.7891027927398682
F-0.07424815744161606
F-0.09160879254341125
F-0.6028367280960083
F0.4328289330005646
F0.1500938981771469
F-0.7504695057868958
F0.1589173525571823
F-0.26978352665901184
F1.0169663429260254
F0.2088579386472702
F0.1934947818517685
F-0.3564690351486206
I-1
I69
tp211
tp212
Rp213
ag1
(g2
g3
(F0.769058883190155
F0.0023314515128731728
F-0.07327339053153992
F-0.6349599957466125
F0.8330793380737305
F-0.5480172634124756
F-1.6219450235366821
F0.045663606375455856
F-0.42857229709625244
F1.040588617324829
F0.1541437953710556
F0.19436468183994293
F-0.381472647190094
I-1
I70
tp214
tp215
Rp216
ag1
(g2
g3
(F0.7497091293334961
F0.13630034029483795
F0.011678576469421387
F-0.6474738121032715
F-0.45493578910827637
F0.044213708490133286
F-0.7178909778594971
F-0.0764874815940857
F-0.08298125118017197
F0.9776663184165955
F0.031746190041303635
F0.24468794465065002
F-0.37837934494018555
I-1
I71
tp217
tp218
Rp219
ag1
(g2
g3
(F0.7483543157577515
F0.20925241708755493
F0.1263735443353653
F-0.6166110038757324
F-0.32578521966934204
F-0.2164144665002823
F0.617828369140625
F0.258080393075943
F-0.24598892033100128
F0.9054592251777649
F0.027467122301459312
F0.2639230191707611
F-0.36158525943756104
I-1
I72
tp220
tp221
Rp222
ag1
(g2
g3
(F0.7612640857696533
F0.23311030864715576
F0.11158594489097595
F-0.5947145819664001
F-0.31764060258865356
F0.07679223269224167
F0.29320669174194336
F-0.54963618516922
F-0.3761383593082428
F0.6194000840187073
F0.01955130323767662
F0.28398898243904114
F-0.34941625595092773
I-1
I73
tp223
tp224
Rp225
ag1
(g2
g3
(F0.7669334411621094
F0.16753754019737244
F0.19119493663311005
F-0.5892274379730225
F-0.17452779412269592
F0.5049670934677124
F0.19779816269874573
F-0.3453209400177002
F-0.42942386865615845
F0.9116736650466919
F0.05439168959856033
F0.2964407801628113
F-0.3391440808773041
I-1
I74
tp226
tp227
Rp228
ag1
(g2
g3
(F0.7649775743484497
F0.12301411479711533
F0.20528589189052582
F-0.5979421138763428
F0.08726389706134796
F0.9878273010253906
F-0.17918187379837036
F-0.05408462882041931
F-0.2930236756801605
F0.9129384160041809
F0.11999725550413132
F0.2919962406158447
F-0.3262008726596832
I-1
I75
tp229
tp230
Rp231
ag1
(g2
g3
(F0.756645679473877
F0.10879915952682495
F0.22171348333358765
F-0.6053869128227234
F0.06283000856637955
F0.9727016091346741
F-0.1256600171327591
F-0.02101866342127323
F-0.28890460729599
F0.9183032512664795
F0.1418798863887787
F0.2914547026157379
F-0.31786754727363586
I-1
I76
tp232
tp233
Rp234
ag1
(g2
g3
(F0.7522419095039368
F0.09425602108240128
F0.23854708671569824
F-0.6069129705429077
F-0.24433891475200653
F0.891255259513855
F-0.14311279356479645
F-0.007164675276726484
F-0.332363486289978
F0.8586550354957581
F0.16201843321323395
F0.2963944673538208
F-0.305794358253479
I-1
I77
tp235
tp236
Rp237
ag1
(g2
g3
(F0.752228856086731
F0.0855739414691925
F0.2580625116825104
F-0.6001939177513123
F-0.08144630491733551
F0.274590402841568
F-0.3804706037044525
F-0.13818541169166565
F-0.4379635751247406
F0.8601033091545105
F0.1667274534702301
F0.3065684735774994
F-0.2973928153514862
I-1
I78
tp238
tp239
Rp240
ag1
(g2
g3
(F0.742533266544342
F0.09492172300815582
F0.13737964630126953
F-0.6486610770225525
F0.22572261095046997
F-2.2560627460479736
F0.7958467602729797
F-0.33376914262771606
F-0.4598695635795593
F1.3784910440444946
F0.14023767411708832
F0.24167902767658234
F-0.38116395473480225
I-1
I79
tp241
tp242
Rp243
ag1
(g2
g3
(F0.7541620135307312
F0.1529613733291626
F0.011829107999801636
F-0.6385161280632019
F-0.21292391419410706
F-0.7167274951934814
F-2.452697277069092
F0.035377729684114456
F-0.14785194396972656
F1.0166685581207275
F0.04998476430773735
F0.24475540220737457
F-0.4089354872703552
I-1
I80
tp244
tp245
Rp246
ag1
(g2
g3
(F0.7441125512123108
F0.21424607932567596
F0.09825728833675385
F-0.6250926852226257
F-0.08377334475517273
F0.4898413419723511
F1.9803087711334229
F0.6027719974517822
F-0.02654350735247135
F0.8550974726676941
F0.021259166300296783
F0.2763858437538147
F-0.3985452651977539
I-1
I81
tp247
tp248
Rp249
ag1
(g2
g3
(F0.7650818824768066
F0.22008521854877472
F0.08375497162342072
F-0.5993307828903198
F-0.3676718771457672
F0.549180805683136
F-0.29204317927360535
F0.7337168455123901
F-0.47340989112854004
F0.9833020567893982
F0.0007587200379930437
F0.3090977072715759
F-0.38073867559432983
I-1
I82
tp250
tp251
Rp252
ag1
(g2
g3
(F0.7483628392219543
F0.2061104029417038
F0.19994446635246277
F-0.5979079604148865
F-0.389778733253479
F0.5305644869804382
F0.4712250530719757
F0.37387615442276
F-0.12467382103204727
F1.2860713005065918
F0.0019525866955518723
F0.32839435338974
F-0.36672160029411316
I-1
I83
tp253
tp254
Rp255
ag1
(g2
g3
(F0.748481035232544
F0.1978691816329956
F0.21351167559623718
F-0.5958497524261475
F0.15474797785282135
F0.7900291681289673
F-0.6725137829780579
F-0.2065076231956482
F-0.4109954833984375
F0.8751785755157471
F0.004649152047932148
F0.3256802558898926
F-0.3685910701751709
I-1
I84
tp256
tp257
Rp258
ag1
(g2
g3
(F0.7373839020729065
F0.17087510228157043
F0.2692885100841522
F-0.5954415202140808
F-0.06399352848529816
F0.9878273010253906
F0.5235834121704102
F-0.14645260572433472
F-0.3677956461906433
F0.9251049757003784
F0.03660522773861885
F0.3279905617237091
F-0.36579397320747375
I-1
I85
tp259
tp260
Rp261
ag1
(g2
g3
(F0.7328611612319946
F0.15540508925914764
F0.2886927127838135
F-0.596171498298645
F0.044213708490133286
F1.1309400796890259
F1.0460032224655151
F-0.06914656609296799
F-0.3092959225177765
F0.9453245997428894
F0.07123272120952606
F0.3258008360862732
F-0.35839593410491943
I-1
I86
tp262
tp263
Rp264
ag1
(g2
g3
(F0.7321875691413879
F0.14322221279144287
F0.27655231952667236
F-0.6057290434837341
F0.23386724293231964
F1.2182040214538574
F0.47820615768432617
F0.1005401536822319
F-0.27994653582572937
F0.9032344222068787
F0.10583209246397018
F0.3217351734638214
F-0.35841840505599976
I-1
I87
tp265
tp266
Rp267
ag1
(g2
g3
(F0.7547442317008972
F0.12885630130767822
F0.24577629566192627
F-0.5944335460662842
F-0.08144630491733551
F0.38396114110946655
F-0.7469789385795593
F0.00011437579814810306
F-0.34303662180900574
F0.789258599281311
F0.1542655974626541
F0.32805418968200684
F-0.33799847960472107
I-1
I88
tp268
tp269
Rp270
ag1
(g2
g3
(F0.7552909255027771
F0.1247517541050911
F0.26238563656806946
F-0.5874747633934021
F-0.039559632539749146
F-0.31647706031799316
F1.7720389366149902
F0.08094539493322372
F-0.3518815040588379
F1.2263810634613037
F0.16158939898014069
F0.329964280128479
F-0.34168916940689087
I-1
I89
tp271
tp272
Rp273
ag1
(g2
g3
(F0.7614958882331848
F0.10410249978303909
F0.21347588300704956
F-0.603087842464447
F1.157701015472412
F-1.570750117301941
F0.3990868926048279
F0.09592131525278091
F-0.04080100730061531
F1.1376876831054688
F0.16130679845809937
F0.31065094470977783
F-0.3603363633155823
I-1
I90
tp274
tp275
Rp276
ag1
(g2
g3
(F0.736434280872345
F0.141708642244339
F0.1505836546421051
F-0.644133448600769
F0.41886672377586365
F-2.364269971847534
F0.9215067625045776
F-0.44154611229896545
F-0.454205721616745
F1.103053092956543
F0.10331939160823822
F0.27474814653396606
F-0.4124363660812378
I-1
I91
tp277
tp278
Rp279
ag1
(g2
g3
(F0.7469104528427124
F0.16343440115451813
F0.05306816101074219
F-0.6423378586769104
F-0.3304392993450165
F0.6527339816093445
F1.09370756149292
F-0.010214864276349545
F0.15646743774414062
F0.80498868227005
F-0.08060947060585022
F0.29588520526885986
F-0.4039858877658844
I-1
I92
tp280
tp281
Rp282
ag1
(g2
g3
(F0.7818440794944763
F0.22495071589946747
F0.12096089124679565
F-0.568757951259613
F0.18150891363620758
F0.09308148920536041
F-2.640023708343506
F-0.04680604115128517
F-0.29277104139328003
F0.8523062467575073
F-0.0643642246723175
F0.34659522771835327
F-0.370314359664917
I-1
I93
tp283
tp284
Rp285
ag1
(g2
g3
(F0.7159243822097778
F0.20740096271038055
F0.33746016025543213
F-0.5749416947364807
F0.16289260983467102
F0.9633934497833252
F0.2606281638145447
F0.06408105790615082
F-0.3088371455669403
F0.9163803458213806
F0.02961275726556778
F0.3489178419113159
F-0.36380550265312195
I-1
I94
tp286
tp287
Rp288
ag1
(g2
g3
(F0.7168499231338501
F0.18641017377376556
F0.24175523221492767
F-0.6268428564071655
F1.0227328538894653
F-2.0792078971862793
F0.6422622799873352
F-0.3060353696346283
F-0.09843828529119492
F0.8290704488754272
F0.07359122484922409
F0.3000454902648926
F-0.39004945755004883
I-1
I95
tp289
tp290
Rp291
ag1
(g2
g3
(F0.6991041898727417
F0.31570374965667725
F0.20266911387443542
F-0.6086953282356262
F-0.07562871277332306
F0.06981112062931061
F-2.0501198768615723
F-0.09254264086484909
F-0.2949236035346985
F0.7378454208374023
F-0.08930833637714386
F0.2620207369327545
F-0.39309677481651306
I-1
I96
tp292
tp293
Rp294
ag1
(g2
g3
(F0.7158278226852417
F0.2614690363407135
F0.29356175661087036
F-0.5771015286445618
F0.055848896503448486
F0.32462170720100403
F1.2251851558685303
F0.0025803442113101482
F-0.3464624881744385
F0.9239208698272705
F-0.009473527781665325
F0.2947779595851898
F-0.311381995677948
I-1
I97
tp295
tp296
Rp297
ag1
(g2
g3
(F0.7843089699745178
F-0.07127539813518524
F-0.08770373463630676
F-0.6099898219108582
F-0.1954711377620697
F-0.9040539860725403
F3.1042678356170654
F0.03344997018575668
F-0.32437050342559814
F0.9141839742660522
F0.206394761800766
F0.14954352378845215
F-0.36509186029434204
I-1
I98
tp298
tp299
Rp300
ag1
(g2
g3
(F0.7589659094810486
F-0.16618062555789948
F-0.23677079379558563
F-0.583347737789154
F0.24899299442768097
F-1.3531721830368042
F4.434169292449951
F-0.2262139916419983
F-0.31847918033599854
F0.9136305451393127
F0.2118871957063675
F0.0882682204246521
F-0.385865718126297
I-1
I99
tp301
tp302
Rp303
ag1
(g2
g3
(F0.6143454909324646
F-0.3602806329727173
F-0.5336885452270508
F-0.45601996779441833
F-0.3455650210380554
F0.11169779300689697
F0.4235207736492157
F-0.4999779462814331
F-0.24679046869277954
F0.9829482436180115
F0.17439024150371552
F-0.044113364070653915
F-0.42563173174858093
I-1
I100
tp304
tp305
Rp306
ag1
(g2
g3
(F0.612893283367157
F-0.3733496069908142
F-0.5376030802726746
F-0.4426681399345398
F-0.2559741139411926
F-0.004654074553400278
F1.0006260871887207
F0.08691824227571487
F-0.23332317173480988
F0.921972393989563
F0.1744302362203598
F-0.041365448385477066
F-0.4246877133846283
I-1
I101
tp307
tp308
Rp309
ag1
(g2
g3
(F0.6066339612007141
F-0.3837679624557495
F-0.5502191781997681
F-0.42658695578575134
F-0.2175779789686203
F0.20128872990608215
F0.5503442883491516
F0.03687290474772453
F-0.37270036339759827
F0.9434153437614441
F0.17807906866073608
F-0.0413183718919754
F-0.4256129562854767
I-1
I102
tp310
tp311
Rp312
ag1
(g2
g3
(F0.6062144637107849
F-0.3874814808368683
F-0.567733645439148
F-0.40005090832710266
F-0.17452779412269592
F-0.048867784440517426
F0.941286563873291
F-0.2675116956233978
F-0.42896315455436707
F0.943105936050415
F0.1799035668373108
F-0.04129183292388916
F-0.42561253905296326
I-1
I103
tp313
tp314
Rp315
ag1
(g2
g3
(F0.5955913066864014
F-0.4102995693683624
F-0.5818786025047302
F-0.37194448709487915
F-0.16754668951034546
F-0.11751538515090942
F1.3752790689468384
F-0.07643575221300125
F-0.34790077805519104
F0.9265798926353455
F0.17606857419013977
F-0.05414653569459915
F-0.4266233742237091
I-1
I104
tp316
tp317
Rp318
ag1
(g2
g3
(F0.5547426342964172
F-0.4462132453918457
F-0.6188387274742126
F-0.33195337653160095
F-0.13380464911460876
F0.05933944880962372
F0.8691484332084656
F-0.017109917476773262
F-0.3772940933704376
F0.9068760871887207
F0.16941705346107483
F-0.07253089547157288
F-0.4285968244075775
I-1
I105
tp319
tp320
Rp321
ag1
(g2
g3
(F0.37153953313827515
F-0.48277539014816284
F-0.7546117305755615
F-0.24381887912750244
F-0.08726389706134796
F0.8016643524169922
F0.25830113887786865
F-0.5172087550163269
F-0.49663761258125305
F0.8656198382377625
F-0.017387421801686287
F-0.06024714186787605
F-0.5109552145004272
I-1
I106
tp322
tp323
Rp324
ag1
(g2
g3
(F0.3524554371833801
F-0.5495999455451965
F-0.7234002947807312
F-0.22451578080654144
F0.7807210087776184
F-2.2618801593780518
F0.3583637475967407
F-0.3740473687648773
F-0.2876013219356537
F0.9014119505882263
F0.018186280503869057
F-0.12281059473752975
F-0.5159914493560791
I-1
I107
tp325
tp326
Rp327
ag1
(g2
g3
(F0.24630135297775269
F-0.5376651883125305
F-0.7561246156692505
F-0.28022754192352295
F-0.2548105716705322
F-0.2071063220500946
F-2.671438694000244
F-0.06406845152378082
F-0.21386103332042694
F0.9280183911323547
F-0.14165174961090088
F-0.1386682391166687
F-0.48926016688346863
I-1
I108
tp328
tp329
Rp330
ag1
(g2
g3
(F0.2983982563018799
F-0.5073073506355286
F-0.7512553930282593
F-0.29868581891059875
F0.18616297841072083
F-0.2629552185535431
F-2.493420362472534
F0.10441866517066956
F-0.30154675245285034
F0.8362743258476257
F-0.15420953929424286
F-0.06123349070549011
F-0.4970879554748535
I-1
I109
tp331
tp332
Rp333
ag1
(g2
g3
(F0.31726327538490295
F-0.5135822296142578
F-0.7601380944252014
F-0.24034883081912994
F-0.48635080456733704
F0.596885085105896
F1.1449023485183716
F0.4551253914833069
F-0.5607718825340271
F1.0380383729934692
F-0.11958381533622742
F-0.06347720324993134
F-0.49802446365356445
I-1
I110
tp334
tp335
Rp336
ag1
(g2
g3
(F0.4018072485923767
F-0.5224460959434509
F-0.7364192605018616
F-0.15260371565818787
F-0.1477668732404709
F0.35952726006507874
F-0.5340550541877747
F-0.0924595445394516
F-0.4824179708957672
F0.8866658806800842
F0.08202308416366577
F-0.060592830181121826
F-0.5053892135620117
I-1
I111
tp337
tp338
Rp339
ag1
(g2
g3
(F0.14023824036121368
F-0.567439079284668
F-0.7782262563705444
F-0.22958721220493317
F-0.17685483396053314
F-0.8260982036590576
F-2.025686025619507
F0.11026354134082794
F-0.14859996736049652
F1.023505687713623
F-0.1850074976682663
F-0.10981810092926025
F-0.45203521847724915
I-1
I112
tp340
tp341
Rp342
ag1
(g2
g3
(F0.19221168756484985
F-0.5484912395477295
F-0.7587928175926208
F-0.29401642084121704
F-0.23735779523849487
F-0.08260982483625412
F-2.6667847633361816
F-0.06239889934659004
F-0.30124011635780334
F0.7144773006439209
F-0.17362384498119354
F-0.14248868823051453
F-0.4429878890514374
I-1
I113
tp343
tp344
Rp345
ag1
(g2
g3
(F0.23304276168346405
F-0.5178096294403076
F-0.7910338640213013
F-0.22766169905662537
F-0.5398726463317871
F0.5317280292510986
F0.09075445681810379
F-0.8809173703193665
F-0.4620833098888397
F0.9514807462692261
F-0.14154766499996185
F-0.06897962093353271
F-0.45176202058792114
I-1
I114
tp346
tp347
Rp348
ag1
(g2
g3
(F0.2590503394603729
F-0.5171265006065369
F-0.7952607274055481
F-0.1817518174648285
F0.038396116346120834
F0.6550610065460205
F-0.39559632539749146
F0.2955489456653595
F-0.16808366775512695
F1.0868686437606812
F-0.12581473588943481
F-0.053246498107910156
F-0.45628705620765686
I-1
I115
tp349
tp350
Rp351
ag1
(g2
g3
(F0.26991957426071167
F-0.5343868732452393
F-0.7956833839416504
F-0.09199044853448868
F0.23386724293231964
F0.9540852904319763
F0.4153761565685272
F0.1073540672659874
F-0.26732808351516724
F0.9404907822608948
F-0.05007335916161537
F-0.050389230251312256
F-0.4673713743686676
I-1
I116
tp352
tp353
Rp354
ag1
(g2
g3
(F0.10481743514537811
F-0.6266732215881348
F-0.7678076028823853
F-0.08225429058074951
F-0.15823853015899658
F-0.1733642816543579
F-2.458514928817749
F-0.04073485732078552
F-0.2502795457839966
F0.8654491901397705
F-0.1349855214357376
F-0.1198401153087616
F-0.41875797510147095
I-1
I117
tp355
tp356
Rp357
ag1
(g2
g3
(F0.15925586223602295
F-0.5921409130096436
F-0.770928680896759
F-0.17226698994636536
F-0.7993373274803162
F0.029087966307997704
F-0.48518726229667664
F0.154744490981102
F-0.1859910488128662
F0.9404872059822083
F-0.11925418674945831
F-0.10415495932102203
F-0.43069151043891907
I-1
I118
tp358
tp359
Rp360
ag1
(g2
g3
(F0.275473952293396
F-0.5410717129707336
F-0.748718798160553
F-0.2660372853279114
F0.34091097116470337
F0.6341176629066467
F-2.5178544521331787
F0.03003113716840744
F-0.2750725746154785
F0.9022417664527893
F-0.0510890930891037
F-0.12058530002832413
F-0.44005122780799866
I-1
I119
tp361
tp362
Rp363
ag1
(g2
g3
(F0.7483350038528442
F-0.21446527540683746
F-0.39865678548812866
F-0.4848426580429077
F0.08260982483625412
F0.8621672987937927
F-1.9547113180160522
F-0.005432932171970606
F-0.4474674165248871
F0.8657392859458923
F0.20427080988883972
F0.1291816681623459
F-0.40041467547416687
I-1
I120
tp364
tp365
Rp366
ag1
(g2
g3
(F0.7184329032897949
F0.206948384642601
F0.13542890548706055
F-0.6501429080963135
F-0.30367836356163025
F0.019779816269874573
F-0.7202180624008179
F0.02101435884833336
F-0.1327814757823944
F0.9567585587501526
F0.02617621421813965
F0.23810255527496338
F-0.3950916826725006
I-1
I121
tp367
tp368
Rp369
ag1
(g2
g3
(F0.7479175925254822
F0.24231483042240143
F0.11110588908195496
F-0.6079131960868835
F-0.20245224237442017
F0.22223205864429474
F-0.3699989318847656
F0.005729834083467722
F-0.24934013187885284
F0.9735791683197021
F0.01488130260258913
F0.2765328884124756
F-0.36150404810905457
I-1
I122
tp370
tp371
Rp372
ag1
(g2
g3
(F0.7551355361938477
F0.22324925661087036
F0.12831507623195648
F-0.6028810739517212
F-0.040723152458667755
F0.017452780157327652
F-1.3845871686935425
F0.18367436528205872
F-0.3246273398399353
F0.7958760261535645
F0.02223360911011696
F0.2803308963775635
F-0.3559221029281616
I-1
I123
tp373
tp374
Rp375
ag1
(g2
g3
(F0.754366934299469
F0.21751171350479126
F0.17300976812839508
F-0.5947158932685852
F-0.11751538515090942
F0.17452779412269592
F0.5933945178985596
F0.16523362696170807
F-0.24768762290477753
F1.018181324005127
F0.025132372975349426
F0.2914223372936249
F-0.3428846299648285
I-1
I124
tp376
tp377
Rp378
ag1
(g2
g3
(F0.7600120306015015
F0.1918589025735855
F0.19131556153297424
F-0.5907372236251831
F-0.041886672377586365
F0.47704264521598816
F0.3420744836330414
F-0.27262890338897705
F-0.33426639437675476
F0.9893534183502197
F0.044370345771312714
F0.2972148060798645
F-0.3382141590118408
I-1
I125
tp379
tp380
Rp381
ag1
(g2
g3
(F0.760681688785553
F0.14518262445926666
F0.1988416314125061
F-0.6006227135658264
F0.1733642816543579
F0.9133621454238892
F-0.22688613831996918
F-0.01226089708507061
F-0.31585994362831116
F0.912466287612915
F0.1026638075709343
F0.29172617197036743
F-0.3289828300476074
I-1
I126
tp382
tp383
Rp384
ag1
(g2
g3
(F0.7442372441291809
F0.10971696674823761
F0.26856717467308044
F-0.6016186475753784
F0.013962224125862122
F-0.068647600710392
F0.5480172634124756
F-0.3044199049472809
F-0.5110520124435425
F1.0524482727050781
F0.14567822217941284
F0.30166345834732056
F-0.3020577132701874
I-1
I127
tp385
tp386
Rp387
ag1
(g2
g3
(F0.7495825886726379
F0.08934319764375687
F0.24267050623893738
F-0.6093069314956665
F0.1140248253941536
F-0.6224824786186218
F1.2449649572372437
F0.23383335769176483
F-0.3399914503097534
F1.0766586065292358
F0.16277165710926056
F0.28544601798057556
F-0.3049400746822357
I-1
I128
tp388
tp389
Rp390
ag1
(g2
g3
(F0.740814208984375
F0.15765880048274994
F0.07761117815971375
F-0.6483168005943298
F-0.07213815301656723
F-2.1106228828430176
F1.4613794088363647
F-0.005393764935433865
F-0.20980893075466156
F1.25214421749115
F0.0844835415482521
F0.23354585468769073
F-0.38307619094848633
I-1
I129
tp391
tp392
Rp393
ag1
(g2
g3
(F0.7508929967880249
F0.16893602907657623
F0.013302356004714966
F-0.6383130550384521
F-0.19779816269874573
F-1.4858132600784302
F-0.06515704095363617
F0.20436358451843262
F-0.14644454419612885
F1.0610295534133911
F0.06529824435710907
F0.23139730095863342
F-0.3895747661590576
I-1
I130
tp394
tp395
Rp396
ag1
(g2
g3
(F0.7424673438072205
F0.2681415379047394
F0.1043955534696579
F-0.6049331426620483
F-0.19314409792423248
F0.7667587995529175
F1.2984868288040161
F-0.00847194530069828
F-0.005988379009068012
F0.810620903968811
F-0.010771370492875576
F0.26874762773513794
F-0.3773006498813629
I-1
I131
tp397
tp398
Rp399
ag1
(g2
g3
(F0.7551242709159851
F0.16506615281105042
F0.24972714483737946
F-0.5832470655441284
F-0.11984241753816605
F0.6445893049240112
F0.7586141228675842
F-0.16103707253932953
F-0.4054265320301056
F0.901731550693512
F0.052976518869400024
F0.32468748092651367
F-0.3482191860675812
I-1
I132
tp400
tp401
Rp402
ag1
(g2
g3
(F0.7564141750335693
F0.1362733095884323
F0.25778335332870483
F-0.5855042338371277
F-0.032578520476818085
F0.6666961908340454
F1.1728267669677734
F-0.10122301429510117
F-0.3828650712966919
F0.9402168393135071
F0.08493299037218094
F0.32700979709625244
F-0.34356993436813354
I-1
I133
tp403
tp404
Rp405
ag1
(g2
g3
(F0.754342794418335
F0.11231151223182678
F0.24925756454467773
F-0.5968450307846069
F0.23619428277015686
F0.9308149218559265
F0.5328915119171143
F0.046083081513643265
F-0.27435222268104553
F0.924405038356781
F0.1167694553732872
F0.32108837366104126
F-0.3417528569698334
I-1
I134
tp406
tp407
Rp408
ag1
(g2
g3
(F0.749009907245636
F0.1061689630150795
F0.24650809168815613
F-0.605760931968689
F0.07446519285440445
F0.8807836174964905
F-0.07911926507949829
F-0.04679407924413681
F-0.31900110840797424
F0.8744706511497498
F0.13223838806152344
F0.31858405470848083
F-0.33991533517837524
I-1
I135
tp409
tp410
Rp411
ag1
(g2
g3
(F0.7532720565795898
F0.09661367535591125
F0.24514541029930115
F-0.6026201248168945
F-0.06399352848529816
F0.7935197353363037
F0.11867889761924744
F0.005239177029579878
F-0.29279544949531555
F0.9139273762702942
F0.15687067806720734
F0.3189842998981476
F-0.3334275782108307
I-1
I136
tp412
tp413
Rp414
ag1
(g2
g3
(F0.7599881887435913
F0.09159578382968903
F0.2337017059326172
F-0.5995096564292908
F-0.039559632539749146
F0.19896169006824493
F-0.019779816269874573
F-0.19115206599235535
F-0.4853210747241974
F0.9557984471321106
F0.16881199181079865
F0.3247125744819641
F-0.32227623462677
I-1
I137
tp415
tp416
Rp417
ag1
(g2
g3
(F0.7677490711212158
F0.06278445571660995
F0.20803287625312805
F-0.6027784943580627
F0.05817593261599541
F-1.6673221588134766
F0.023270372301340103
F0.13265372812747955
F-0.13284116983413696
F1.1274871826171875
F0.08480693399906158
F0.25614333152770996
F-0.4218209385871887
I-1
I138
tp418
tp419
Rp420
ag1
(g2
g3
(F0.7295195460319519
F0.24856586754322052
F0.09543873369693756
F-0.6300063133239746
F-0.30251485109329224
F-0.45144522190093994
F-0.7539600729942322
F-0.38333481550216675
F-0.259156197309494
F0.7358173727989197
F-0.047203969210386276
F0.27252283692359924
F-0.4180254340171814
I-1
I139
tp421
tp422
Rp423
ag1
(g2
g3
(F0.7471948862075806
F0.23656724393367767
F0.10396237671375275
F-0.6123135089874268
F-0.019779816269874573
F-0.09308148920536041
F-2.5737032890319824
F-0.10222891718149185
F-0.2082758992910385
F0.9767097234725952
F-0.02278941497206688
F0.32057440280914307
F-0.3899265229701996
I-1
I140
tp424
tp425
Rp426
ag1
(g2
g3
(F0.7627853155136108
F0.23885022103786469
F0.12145392596721649
F-0.5885221362113953
F-0.039559632539749146
F0.29320669174194336
F-1.716189980506897
F0.403544545173645
F-0.24073809385299683
F1.1996549367904663
F-0.041918862611055374
F0.32216569781303406
F-0.3834362328052521
I-1
I141
tp427
tp428
Rp429
ag1
(g2
g3
(F0.7467639446258545
F0.14346842467784882
F0.23674693703651428
F-0.6047407984733582
F0.009308149106800556
F1.0087707042694092
F-0.7050923109054565
F0.09714575856924057
F-0.3323948085308075
F0.8898505568504333
F0.11503129452466965
F0.3272617757320404
F-0.3722713887691498
I-1
I142
tp430
tp431
Rp432
ag1
(g2
g3
(F0.7477656602859497
F0.1475972831249237
F0.24763929843902588
F-0.5981108546257019
F-0.15242093801498413
F0.45260876417160034
F-0.5421996712684631
F-0.10417822003364563
F-0.3473889231681824
F0.824785590171814
F0.11696432530879974
F0.33467206358909607
F-0.36111024022102356
I-1
I143
tp433
tp434
Rp435
ag1
(g2
g3
(F0.7367601990699768
F0.18629488348960876
F0.15176387131214142
F-0.6320179104804993
F0.2513200342655182
F-2.1594905853271484
F1.4788322448730469
F-0.18431048095226288
F-0.3217102289199829
F1.2496854066848755
F0.018556460738182068
F0.27891406416893005
F-0.42538371682167053
I-1
I144
tp436
tp437
Rp438
ag1
(g2
g3
(F0.7612820267677307
F0.2653135657310486
F0.15619921684265137
F-0.5706666707992554
F-0.1710372418165207
F0.6736772656440735
F-0.8365699052810669
F-0.340475857257843
F-0.1992499977350235
F1.0652858018875122
F-0.09762922674417496
F0.31689441204071045
F-0.3668091595172882
I-1
I145
tp439
tp440
Rp441
ag1
(g2
g3
(F0.7336751818656921
F0.2508898079395294
F0.2780095338821411
F-0.566997230052948
F-0.5573254227638245
F0.40723150968551636
F1.6219450235366821
F0.40890952944755554
F-0.3245130181312561
F1.182626485824585
F-0.07742413878440857
F0.3264099657535553
F-0.3537799119949341
I-1
I146
tp442
tp443
Rp444
ag1
(g2
g3
(F0.6983088254928589
F0.22476691007614136
F0.3501686453819275
F-0.5824317336082458
F-0.07679223269224167
F0.4235207736492157
F-0.17801834642887115
F0.10006798803806305
F-0.3668747842311859
F0.8750038146972656
F0.04820214956998825
F0.3099735975265503
F-0.35202038288116455
I-1
I147
tp445
tp446
Rp447
ag1
(g2
g3
(F0.7023943066596985
F0.22406505048274994
F0.3548392355442047
F-0.5749143362045288
F-0.06632056087255478
F0.08610037714242935
F0.043050188571214676
F-0.2826153635978699
F-0.40878570079803467
F0.8447202444076538
F0.050978921353816986
F0.3127612769603729
F-0.3510757386684418
I-1
I148
tp448
tp449
Rp450
ag1
(g2
g3
(F0.7117923498153687
F0.2009248435497284
F0.3020648658275604
F-0.6014466285705566
F0.9552487730979919
F-1.285688042640686
F0.4339924454689026
F-0.08088225871324539
F-0.12326879054307938
F0.8651713132858276
F0.05598766356706619
F0.28083983063697815
F-0.3531365692615509
I-1
I149
tp451
tp452
Rp453
ag1
(g2
g3
(F0.7052538990974426
F0.2796883285045624
F0.16648587584495544
F-0.6298204660415649
F-0.1826724261045456
F0.07446519285440445
F-1.827887773513794
F0.025880848988890648
F-0.23912619054317474
F0.869116485118866
F-0.027666866779327393
F0.2356896847486496
F-0.3645552396774292
I-1
I150
tp454
tp455
Rp456
ag1
(g2
g3
(F0.3815874755382538
F0.5596054196357727
F0.6535239219665527
F-0.33784550428390503
F-0.3455650210380554
F1.1704998016357422
F-4.428351879119873
F-0.5632122159004211
F-0.4992576539516449
F0.6561902165412903
F-0.19029395282268524
F0.09025633335113525
F-0.30441147089004517
I-1
I151
tp457
tp458
Rp459
ag1
(g2
g3
(F-0.06267083436250687
F0.5746126770973206
F0.8150963187217712
F0.03886783868074417
F0.5340550541877747
F-0.5387091040611267
F-0.45493578910827637
F0.027899466454982758
F-0.2891964912414551
F1.113366961479187
F-0.1447170227766037
F-0.03709398955106735
F-0.31820568442344666
I-1
I152
tp460
tp461
Rp462
ag1
(g2
g3
(F-0.342342346906662
F0.5336120128631592
F0.7531264424324036
F0.1756722331047058
F-0.043050188571214676
F0.5445266962051392
F0.274590402841568
F-0.14741677045822144
F-0.40179187059402466
F0.9253547787666321
F0.02321275696158409
F-0.09124332666397095
F-0.450035959482193
I-1
I153
tp463
tp464
Rp465
ag1
(g2
g3
(F-0.35361385345458984
F0.5411543250083923
F0.7484668493270874
F0.14800956845283508
F0.07330167293548584
F0.6108472943305969
F0.5771052241325378
F-0.0907856896519661
F-0.3435231149196625
F0.9097732305526733
F0.042396657168865204
F-0.08913673460483551
F-0.45001980662345886
I-1
I154
tp466
tp467
Rp468
ag1
(g2
g3
(F-0.28990158438682556
F0.5241216421127319
F0.7320893406867981
F0.3244979679584503
F-0.27109983563423157
F-0.4560993015766144
F-1.4602159261703491
F-0.21726414561271667
F-0.27061760425567627
F0.777258038520813
F-0.07793820649385452
F-0.14774520695209503
F-0.4819037914276123
I-1
I155
tp469
tp470
Rp471
ag1
(g2
g3
(F-0.28841111063957214
F0.5123775005340576
F0.7607060074806213
F0.2749817967414856
F-0.8621672987937927
F-0.5805957913398743
F0.6888030171394348
F1.328477382659912
F-0.5158491134643555
F1.2026188373565674
F-0.0825805813074112
F-0.09038839489221573
F-0.5037527084350586
I-1
I156
tp472
tp473
Rp474
ag1
(g2
g3
(F-0.39594709873199463
F0.5138876438140869
F0.7339718341827393
F0.20107436180114746
F-0.010471668094396591
F1.1542104482650757
F-0.323458194732666
F-0.008880792185664177
F-0.2818526327610016
F0.8510961532592773
F0.08097536861896515
F-0.06982980668544769
F-0.5184142589569092
I-1
I157
tp475
tp476
Rp477
ag1
(g2
g3
(F-0.23123180866241455
F0.5531353950500488
F0.7670671939849854
F0.22843196988105774
F-0.032578520476818085
F-1.2798705101013184
F-0.5305644869804382
F0.18465299904346466
F-0.1563810408115387
F0.9833468198776245
F-0.13489562273025513
F-0.11302010715007782
F-0.49464723467826843
I-1
I158
tp478
tp479
Rp480
ag1
(g2
g3
(F-0.237294003367424
F0.5241276621818542
F0.7822691202163696
F0.23882438242435455
F0.008144630119204521
F-0.9133621454238892
F-1.7883281707763672
F0.11755663901567459
F-0.25931188464164734
F0.9129751920700073
F-0.1572491079568863
F-0.08222273737192154
F-0.4861137270927429
I-1
I159
tp481
tp482
Rp483
ag1
(g2
g3
(F-0.24832209944725037
F0.5135436654090881
F0.7815695405006409
F0.25250405073165894
F0.1710372418165207
F0.6445893049240112
F-4.434169292449951
F0.6496442556381226
F-0.42317065596580505
F1.2321385145187378
F-0.13606779277324677
F-0.06819594651460648
F-0.48416706919670105
I-1
I160
tp484
tp485
Rp486
ag1
(g2
g3
(F-0.3052193522453308
F0.4995812475681305
F0.7605947256088257
F0.2806340754032135
F-0.6050297021865845
F0.5352185964584351
F2.4189553260803223
F-0.08889248967170715
F-0.36703458428382874
F0.6806353330612183
F-0.12615279853343964
F-0.07628776133060455
F-0.48607099056243896
I-1
I161
tp487
tp488
Rp489
ag1
(g2
g3
(F-0.3201502859592438
F0.5046334862709045
F0.7640946507453918
F0.24291642010211945
F-0.27109983563423157
F0.8447145223617554
F0.05817593261599541
F-0.3980603814125061
F-0.4442359507083893
F0.9757063388824463
F-0.09138230979442596
F-0.06851373612880707
F-0.4924979507923126
I-1
I162
tp490
tp491
Rp492
ag1
(g2
g3
(F-0.39882299304008484
F0.5439159274101257
F0.7254891395568848
F0.13697220385074615
F-0.1489303857088089
F0.6853124499320984
F-0.14543983340263367
F0.1865985095500946
F-0.3280320465564728
F0.8187673687934875
F0.0782180204987526
F-0.07151764631271362
F-0.4906449317932129
I-1
I163
tp493
tp494
Rp495
ag1
(g2
g3
(F-0.42134055495262146
F0.5214113593101501
F0.7242991328239441
F0.1612246334552765
F0.036069076508283615
F-0.06399352848529816
F0.5096211433410645
F-0.20718692243099213
F-0.49843651056289673
F0.9896448254585266
F0.09013081341981888
F-0.06767725199460983
F-0.48876625299453735
I-1
I164
tp496
tp497
Rp498
ag1
(g2
g3
(F-0.35736748576164246
F0.5434983968734741
F0.74337238073349
F0.15587051212787628
F1.1227954626083374
F-1.7650578022003174
F0.2280496507883072
F-0.21727414429187775
F0.021705185994505882
F1.0209556818008423
F0.024089757353067398
F-0.09332188963890076
F-0.4907945692539215
I-1
I165
tp499
tp500
Rp501
ag1
(g2
g3
(F-0.15074273943901062
F0.5735746026039124
F0.7792767286300659
F0.20252573490142822
F-0.24782946705818176
F-0.3467285633087158
F-1.9023529291152954
F-0.07596535235643387
F-0.312199205160141
F0.8980824947357178
F-0.1697484701871872
F-0.12687407433986664
F-0.4391809105873108
I-1
I166
tp502
tp503
Rp504
ag1
(g2
g3
(F-0.21923404932022095
F0.5344809889793396
F0.7884015440940857
F0.2113994061946869
F-0.760941207408905
F-0.11053427308797836
F2.1490190029144287
F0.6808876395225525
F-0.33981117606163025
F0.8337481021881104
F-0.14900434017181396
F-0.08003547787666321
F-0.449057400226593
I-1
I167
tp505
tp506
Rp507
ag1
(g2
g3
(F-0.21229588985443115
F0.500105619430542
F0.8142557144165039
F0.2044815570116043
F-0.4572628140449524
F0.09308148920536041
F-2.9192683696746826
F0.905495285987854
F-0.6726345419883728
F1.30335533618927
F-0.14868469536304474
F-0.05806411802768707
F-0.44335708022117615
I-1
I168
tp508
tp509
Rp510
ag1
(g2
g3
(F-0.2766760289669037
F0.5188563466072083
F0.8006424903869629
F0.11493620276451111
F0.20245224237442017
F0.7469789385795593
F0.5119482278823853
F0.05436544492840767
F-0.350844144821167
F0.9137073159217834
F-0.060052916407585144
F-0.04681331291794777
F-0.4571628272533417
I-1
I169
tp511
tp512
Rp513
ag1
(g2
g3
(F-0.15252836048603058
F0.6088768243789673
F0.7724406719207764
F0.09664274752140045
F0.26760929822921753
F-0.22572261095046997
F-0.33625689148902893
F0.021728569641709328
F-0.14782293140888214
F0.8817605376243591
F-0.10003165900707245
F-0.09934243559837341
F-0.43621373176574707
I-1
I170
tp514
tp515
Rp516
ag1
(g2
g3
(F-0.19217713177204132
F0.599553644657135
F0.7647510766983032
F0.13696539402008057
F-0.045377228409051895
F1.2787070274353027
F-3.54175066947937
F-0.5024572014808655
F-0.2923974394798279
F0.7479692101478577
F0.1532469540834427
F-0.055452197790145874
F-0.43589499592781067
I-1
I171
tp517
tp518
Rp519
ag1
(g2
g3
(F-0.6413854360580444
F0.3772376775741577
F0.5026805400848389
F0.44003286957740784
F-0.5421996712684631
F0.15358446538448334
F-1.0145882368087769
F-0.5343912243843079
F-0.4884391129016876
F1.1909432411193848
F0.1950710117816925
F-0.0017546750605106354
F-0.4216472804546356
I-1
I172
tp520
tp521
Rp522
ag1
(g2
g3
(F-0.6569141149520874
F0.3556593656539917
F0.4975336194038391
F0.4409429132938385
F-0.06399352848529816
F-0.48751431703567505
F-0.3106594681739807
F0.4256090223789215
F-0.122703418135643
F1.0742301940917969
F0.18691319227218628
F0.0017638113349676132
F-0.42440328001976013
I-1
I173
tp523
tp524
Rp525
ag1
(g2
g3
(F-0.6721930503845215
F0.31600332260131836
F0.48628878593444824
F0.46024107933044434
F-0.13380464911460876
F0.5107846856117249
F-1.7697118520736694
F0.11620418727397919
F-0.4650324583053589
F1.1365563869476318
F0.19191232323646545
F0.03199129179120064
F-0.42420437932014465
I-1
I174
tp526
tp527
Rp528
ag1
(g2
g3
(F-0.69480961561203
F0.29356592893600464
F0.4607131779193878
F0.4677630066871643
F-0.21292391419410706
F0.6876395344734192
F-1.4160021543502808
F-0.09562435001134872
F-0.3967103362083435
F0.9533704519271851
F0.1976926028728485
F0.05314027518033981
F-0.4166567027568817
I-1
I175
tp529
tp530
Rp531
ag1
(g2
g3
(F-0.7309612035751343
F0.2523455023765564
F0.4054858386516571
F0.48744118213653564
F-0.026760928332805634
F0.617828369140625
F-1.471851110458374
F0.2323448657989502
F-0.3894970715045929
F0.9103503823280334
F0.215546116232872
F0.08913330733776093
F-0.40160199999809265
I-1
I176
tp532
tp533
Rp534
ag1
(g2
g3
(F-0.7452516555786133
F0.21064548194408417
F0.3800615668296814
F0.5057488679885864
F-0.05468537658452988
F0.47820615768432617
F-1.5230458974838257
F-0.039459120482206345
F-0.4520811140537262
F0.908832848072052
F0.2194892317056656
F0.10935977846384048
F-0.3912825882434845
I-1
I177
tp535
tp536
Rp537
ag1
(g2
g3
(F-0.7861515283584595
F0.11058299243450165
F0.2446703016757965
F0.5566631555557251
F0.39443281292915344
F0.09540852904319763
F-2.018704891204834
F-0.045785289257764816
F-0.41104498505592346
F0.9295217394828796
F0.20135632157325745
F0.17954109609127045
F-0.37786003947257996
I-1
I178
tp538
tp539
Rp540
ag1
(g2
g3
(F-0.7878711819648743
F0.0824887603521347
F0.2160351276397705
F0.5707745552062988
F0.47355207800865173
F-0.051194820553064346
F-2.1001510620117188
F0.036600809544324875
F-0.31586629152297974
F0.8832573890686035
F0.1860067993402481
F0.19027121365070343
F-0.37964358925819397
I-1
I179
tp541
tp542
Rp543
ag1
(g2
g3
(F-0.7835002541542053
F0.016041265800595284
F0.1633719801902771
F0.5993161797523499
F0.5212563276290894
F0.17569132149219513
F-2.5050556659698486
F-0.3936300277709961
F-0.5530464053153992
F1.085064172744751
F0.15063993632793427
F0.2043413370847702
F-0.3851117193698883
I-1
I180
tp544
tp545
Rp546
ag1
(g2
g3
(F-0.7428379654884338
F-0.12799963355064392
F-0.03958180546760559
F0.6559279561042786
F-0.07795574516057968
F0.039559632539749146
F-2.7610297203063965
F-0.0602211058139801
F-0.014987264759838581
F0.9508713483810425
F0.09265324473381042
F0.2308993637561798
F-0.38679662346839905
I-1
I181
tp547
tp548
Rp549
ag1
(g2
g3
(F-0.7308387160301208
F-0.19007885456085205
F-0.11076721549034119
F0.6461235284805298
F-0.3211311399936676
F-0.07795574516057968
F-0.6515704393386841
F0.12677724659442902
F-0.18597868084907532
F0.9112589359283447
F0.049078457057476044
F0.24492204189300537
F-0.38115379214286804
I-1
I182
tp550
tp551
Rp552
ag1
(g2
g3
(F-0.7272402048110962
F-0.23410186171531677
F-0.16248297691345215
F0.624433696269989
F-0.2175779789686203
F-0.31415003538131714
F-0.11984241753816605
F0.06211633235216141
F-0.2250603288412094
F0.9192859530448914
F0.014761291444301605
F0.26828911900520325
F-0.364336222410202
I-1
I183
tp553
tp554
Rp555
ag1
(g2
g3
(F-0.7620490789413452
F-0.23264366388320923
F-0.11358149349689484
F0.5935129523277283
F-0.21990501880645752
F0.2652822434902191
F-0.9715380668640137
F-0.26631054282188416
F-0.15727415680885315
F1.1490638256072998
F0.017739469185471535
F0.2848584055900574
F-0.3521888256072998
I-1
I184
tp556
tp557
Rp558
ag1
(g2
g3
(F-0.7596333622932434
F-0.23343008756637573
F-0.15091511607170105
F0.5879560708999634
F-0.16405612230300903
F0.4246843159198761
F1.0355316400527954
F0.1953754425048828
F-0.24841858446598053
F0.9926204681396484
F0.04421013221144676
F0.2862171530723572
F-0.34291645884513855
I-1
I185
tp559
tp560
Rp561
ag1
(g2
g3
(F-0.7673099637031555
F-0.19132688641548157
F-0.15480880439281464
F0.5921688675880432
F-0.12449649721384048
F0.5096211433410645
F-0.22455909848213196
F-0.14110960066318512
F-0.39716967940330505
F0.8732443451881409
F0.05796169489622116
F0.2910280227661133
F-0.3364010453224182
I-1
I186
tp562
tp563
Rp564
ag1
(g2
g3
(F-0.7673460245132446
F-0.16787788271903992
F-0.18888437747955322
F0.5893386602401733
F-0.09424500912427902
F0.39326930046081543
F0.3013513386249542
F-0.23154209554195404
F-0.3918152451515198
F0.925088107585907
F0.06709811836481094
F0.2920926809310913
F-0.33361491560935974
I-1
I187
tp565
tp566
Rp567
ag1
(g2
g3
(F-0.768666684627533
F-0.13575491309165955
F-0.19220519065856934
F0.5947937369346619
F0.06166648864746094
F0.5433632135391235
F0.7551236152648926
F-0.013705655001103878
F-0.3301945924758911
F0.9543524384498596
F0.09533903002738953
F0.28978607058525085
F-0.32992246747016907
I-1
I188
tp568
tp569
Rp570
ag1
(g2
g3
(F-0.7647565603256226
F-0.1195693239569664
F-0.1879660040140152
F0.6045821309089661
F0.19314409792423248
F0.872639000415802
F-0.3816341161727905
F0.05191672220826149
F-0.2969316840171814
F0.8966506719589233
F0.12081604450941086
F0.285593718290329
F-0.32902082800865173
I-1
I189
tp571
tp572
Rp573
ag1
(g2
g3
(F-0.7569333910942078
F-0.11759229004383087
F-0.2089540958404541
F0.6079164147377014
F0.038396116346120834
F0.8866012096405029
F-0.4118855893611908
F-0.13335581123828888
F-0.267746239900589
F0.8939198851585388
F0.1317775547504425
F0.2867029011249542
F-0.3234560787677765
I-1
I190
tp574
tp575
Rp576
ag1
(g2
g3
(F-0.7572213411331177
F-0.10246971249580383
F-0.23865902423858643
F0.599297821521759
F-0.1140248253941536
F0.10588019341230392
F-0.2873890995979309
F-0.1371881663799286
F-0.5171310305595398
F0.8817911148071289
F0.15018624067306519
F0.2980678677558899
F-0.30300673842430115
I-1
I191
tp577
tp578
Rp579
ag1
(g2
g3
(F-0.7650747299194336
F-0.08591427654027939
F-0.19876989722251892
F0.6064406037330627
F0.824934720993042
F-1.1728267669677734
F0.15707501769065857
F0.09909329563379288
F-0.1257856786251068
F1.1002042293548584
F0.16270115971565247
F0.28075021505355835
F-0.3244174122810364
I-1
I192
tp580
tp581
Rp582
ag1
(g2
g3
(F-0.7414875626564026
F-0.11884264647960663
F-0.14385844767093658
F0.644497811794281
F0.6422622799873352
F-2.200213670730591
F0.6073567271232605
F-0.38422080874443054
F-0.3179759383201599
F1.0231702327728271
F0.12122902274131775
F0.2515380382537842
F-0.36813727021217346
I-1
I193
tp583
tp584
Rp585
ag1
(g2
g3
(F-0.743115246295929
F-0.13787823915481567
F-0.08682997524738312
F0.6490223407745361
F-0.16871020197868347
F-1.5975110530853271
F0.22223205864429474
F0.17494887113571167
F-0.18480069935321808
F1.0396006107330322
F0.07723598927259445
F0.2370176464319229
F-0.39509257674217224
I-1
I194
tp586
tp587
Rp588
ag1
(g2
g3
(F-0.7440260648727417
F-0.19423887133598328
F-0.03599412739276886
F0.6382798552513123
F-0.15823853015899658
F-0.5259104371070862
F-2.478294610977173
F0.025650765746831894
F-0.18596573173999786
F0.9725980162620544
F0.021786238998174667
F0.24988187849521637
F-0.4005710780620575
I-1
I195
tp589
tp590
Rp591
ag1
(g2
g3
(F-0.7281414270401001
F-0.2802991569042206
F-0.13191577792167664
F0.6114252805709839
F-0.47587913274765015
F-0.026760928332805634
F-0.0919179692864418
F-0.319163054227829
F-0.18365421891212463
F0.7516472339630127
F-0.04824257269501686
F0.26356175541877747
F-0.38845157623291016
I-1
I196
tp592
tp593
Rp594
ag1
(g2
g3
(F-0.7767279148101807
F-0.1789189577102661
F-0.07667171955108643
F0.5990021228790283
F-0.11751538515090942
F-0.5305644869804382
F-2.2921316623687744
F0.5895372033119202
F-0.6226857900619507
F0.8235517144203186
F0.019945992156863213
F0.3113062381744385
F-0.36497944593429565
I-1
I197
tp595
tp596
Rp597
ag1
(g2
g3
(F-0.7692224979400635
F-0.24753998219966888
F-0.1267223358154297
F0.5752933025360107
F0.18965353071689606
F0.8342428803443909
F0.048867784440517426
F-0.07161229848861694
F0.005139591172337532
F1.113285779953003
F-0.024688387289643288
F0.3152199387550354
F-0.3658852279186249
I-1
I198
tp598
tp599
Rp600
ag1
(g2
g3
(F-0.7412816286087036
F-0.1260971873998642
F-0.12712989747524261
F0.6468688249588013
F0.7097463607788086
F-2.30609393119812
F0.6550610065460205
F-0.42385369539260864
F-0.3621513843536377
F0.9693529009819031
F0.11245720088481903
F0.27585476636886597
F-0.403167724609375
I-1
I199
tp601
tp602
Rp603
ag1
(g2
g3
(F-0.7455608248710632
F-0.14464060962200165
F-0.044715702533721924
F0.649013876914978
F0.11751538515090942
F-2.202540874481201
F1.1309400796890259
F0.31091490387916565
F-0.2470300942659378
F1.2045029401779175
F0.07666277885437012
F0.26058778166770935
F-0.4227188229560852
I-1
I200
tp604
tp605
Rp606
ag1
(g2
g3
(F-0.7344681024551392
F-0.25437629222869873
F-0.07368859648704529
F0.6248354911804199
F-0.26760929822921753
F-0.16871020197868347
F-2.5539233684539795
F0.004003793932497501
F-0.3037056028842926
F0.8248044848442078
F-0.059975750744342804
F0.2723310887813568
F-0.4189542829990387
I-1
I201
tp607
tp608
Rp609
ag1
(g2
g3
(F-0.7392610907554626
F-0.2762344777584076
F-0.1343226581811905
F0.599287211894989
F0.06166648864746094
F0.7818845510482788
F1.6556869745254517
F0.053041134029626846
F0.031627606600522995
F0.8522694110870361
F-0.06043350324034691
F0.3034949004650116
F-0.40300747752189636
I-1
I202
tp610
tp611
Rp612
ag1
(g2
g3
(F-0.7878530025482178
F-0.20422576367855072
F-0.06384479999542236
F0.577497661113739
F-0.08144630491733551
F-0.39675986766815186
F-2.154836416244507
F0.43755143880844116
F-0.4131012558937073
F0.9082149267196655
F-0.02065735124051571
F0.34169429540634155
F-0.3786754012107849
I-1
I203
tp613
tp614
Rp615
ag1
(g2
g3
(F-0.7290841341018677
F-0.17656560242176056
F-0.30007225275039673
F0.5892518758773804
F0.05933944880962372
F1.0471668243408203
F0.052358340471982956
F-0.04629860073328018
F-0.3588252067565918
F0.8725303411483765
F0.06971081346273422
F0.3467177450656891
F-0.37029722332954407
I-1
I204
tp616
tp617
Rp618
ag1
(g2
g3
(F-0.7447936534881592
F-0.14227132499217987
F-0.2698848843574524
F0.5934674739837646
F1.1716632843017578
F-1.9477301836013794
F0.9284878969192505
F-0.20443901419639587
F0.021740512922406197
F0.8190891742706299
F0.0828332006931305
F0.30840393900871277
F-0.38999348878860474
I-1
I205
tp619
tp620
Rp621
ag1
(g2
g3
(F-0.7433670163154602
F-0.24201491475105286
F-0.06611379981040955
F0.6200510859489441
F-0.1733642816543579
F-0.7493060231208801
F-2.1048052310943604
F0.03709133714437485
F-0.16145728528499603
F1.050032377243042
F-0.03428405895829201
F0.2828342914581299
F-0.4068439304828644
I-1
I206
tp622
tp623
Rp624
ag1
(g2
g3
(F-0.7325627207756042
F-0.3024737536907196
F-0.17139314115047455
F0.5852231383323669
F0.15823853015899658
F0.8423874974250793
F0.45377227663993835
F0.010011312551796436
F-0.0033263242803514004
F0.8347325325012207
F-0.09062565863132477
F0.2968151271343231
F-0.37897834181785583
I-1
I207
tp625
tp626
Rp627
ag1
(g2
g3
(F-0.7767950296401978
F-0.24314728379249573
F-0.12093013525009155
F0.5681944489479065
F-0.4014139175415039
F0.11751538515090942
F-2.6481683254241943
F1.0336891412734985
F-0.9169580936431885
F1.3234021663665771
F-0.07560913264751434
F0.32563650608062744
F-0.33619028329849243
I-1
I208
tp628
tp629
Rp630
ag1
(g2
g3
(F-0.7629643678665161
F-0.24276545643806458
F-0.2401435375213623
F0.5488911867141724
F0.009308149106800556
F0.5456902384757996
F-0.45493578910827637
F0.6636480093002319
F-0.09728024899959564
F1.1592702865600586
F-0.06000394746661186
F0.33237984776496887
F-0.31762367486953735
I-1
I209
tp631
tp632
Rp633
ag1
(g2
g3
(F-0.7729058861732483
F-0.03220835328102112
F-0.11363856494426727
F0.6234304904937744
F0.040723152458667755
F-0.888928234577179
F2.2502450942993164
F-0.450163871049881
F-0.299709290266037
F0.8222543001174927
F0.15775232017040253
F0.254094660282135
F-0.33755719661712646
I-1
I210
tp634
tp635
Rp636
ag1
(g2
g3
(F-0.7714610695838928
F0.016512898728251457
F-0.08648417890071869
F0.6301553845405579
F-0.11635186523199081
F-0.8854376673698425
F3.063544511795044
F-0.4870969355106354
F-0.296318382024765
F0.9155086874961853
F0.1837962120771408
F0.22614026069641113
F-0.3386634290218353
I-1
I211
tp637
tp638
Rp639
ag1
(g2
g3
(F-0.7697731852531433
F0.08771806210279465
F0.009574800729751587
F0.6321892142295837
F-0.13147760927677155
F-1.0145882368087769
F3.9024415016174316
F-0.3832814395427704
F-0.3516984283924103
F0.8585640788078308
F0.21241487562656403
F0.18717403709888458
F-0.3528059422969818
I-1
I212
tp640
tp641
Rp642
ag1
(g2
g3
(F-0.7613846063613892
F0.15076257288455963
F0.09601566195487976
F0.6231736540794373
F-0.036069076508283615
F-1.2566001415252686
F4.331779956817627
F-0.33756914734840393
F-0.482331782579422
F0.7475599646568298
F0.22900190949440002
F0.13615964353084564
F-0.3661029636859894
I-1
I213
tp643
tp644
Rp645
ag1
(g2
g3
(F-0.7404569983482361
F0.22460894286632538
F0.20349684357643127
F0.5998862385749817
F-0.23154020309448242
F-1.23565673828125
F4.978696346282959
F-0.04016872122883797
F-0.6353998780250549
F0.8097590804100037
F0.23821094632148743
F0.07954325526952744
F-0.38128960132598877
I-1
I214
tp646
tp647
Rp648
ag1
(g2
g3
(F-0.6915504336357117
F0.31805798411369324
F0.34835177659988403
F0.5470359325408936
F-0.4467911720275879
F-1.2135499715805054
F4.961243629455566
F0.10934651643037796
F-0.5436558127403259
F0.8611598610877991
F0.2279834896326065
F0.0034427931532263756
F-0.3984585404396057
I-1
I215
tp649
tp650
Rp651
ag1
(g2
g3
(F-0.4724123179912567
F0.4871525764465332
F0.6678825616836548
F0.3056830167770386
F0.05817593261599541
F-0.5829228162765503
F0.6888030171394348
F0.2726512551307678
F-0.2853110730648041
F0.800030529499054
F0.12493859976530075
F-0.12070043385028839
F-0.42984429001808167
I-1
I216
tp652
tp653
Rp654
ag1
(g2
g3
(F-0.455510675907135
F0.5003078579902649
F0.7081722617149353
F0.20172888040542603
F0.0011635186383500695
F0.17801834642887115
F-0.11169779300689697
F-0.2893467843532562
F-0.5409177541732788
F1.0198274850845337
F0.12752972543239594
F-0.06724119186401367
F-0.5054273009300232
I-1
I217
tp655
tp656
Rp657
ag1
(g2
g3
(F-0.2987224757671356
F0.4924468398094177
F0.7304342985153198
F0.36705172061920166
F-0.5049670934677124
F-0.17569132149219513
F-0.16521964967250824
F-0.5311585068702698
F-0.2688309848308563
F0.7228760123252869
F-0.12079085409641266
F-0.14663681387901306
F-0.4967181384563446
I-1
I218
tp658
tp659
Rp660
ag1
(g2
g3
(F-0.32292208075523376
F0.49409937858581543
F0.7432432174682617
F0.31492355465888977
F-0.729526162147522
F0.2885526120662689
F0.6597150564193726
F0.016327613964676857
F-0.06135004758834839
F0.7582830786705017
F-0.12873658537864685
F-0.1285007745027542
F-0.5003042221069336
I-1
I219
tp661
tp662
Rp663
ag1
(g2
g3
(F-0.3248358368873596
F0.4943128526210785
F0.7539854049682617
F0.2857320308685303
F-0.21408742666244507
F0.6841489672660828
F1.020405888557434
F0.05377952381968498
F-0.027376564219594002
F0.8308519721031189
F-0.12206027656793594
F-0.10834243893623352
F-0.506653368473053
I-1
I220
tp664
tp665
Rp666
ag1
(g2
g3
(F-0.321286678314209
F0.5044347047805786
F0.7583484649658203
F0.25928419828414917
F-0.5317280292510986
F0.28273501992225647
F1.948893666267395
F0.45549124479293823
F-0.28584614396095276
F0.8256452679634094
F-0.11550317704677582
F-0.09640388190746307
F-0.5121303796768188
I-1
I221
tp667
tp668
Rp669
ag1
(g2
g3
(F-0.2965908348560333
F0.4962749183177948
F0.781044065952301
F0.2360411286354065
F-1.0518208742141724
F-0.6038661599159241
F1.0553114414215088
F1.1986576318740845
F-0.6173111200332642
F1.1500073671340942
F-0.12601198256015778
F-0.06638997793197632
F-0.5100827217102051
I-1
I222
tp670
tp671
Rp672
ag1
(g2
g3
(F-0.3473307192325592
F0.4478195607662201
F0.7654193043708801
F0.30488109588623047
F-0.2559741139411926
F0.1722007542848587
F-2.7505581378936768
F-0.8531612157821655
F0.09380310773849487
F0.6798679232597351
F-0.11601776629686356
F-0.06900991499423981
F-0.5138027667999268
I-1
I223
tp673
tp674
Rp675
ag1
(g2
g3
(F-0.39012613892555237
F0.5046395659446716
F0.7512883543968201
F0.16942979395389557
F-0.045377228409051895
F0.6911300420761108
F-0.3350933790206909
F0.05046512931585312
F-0.3603041172027588
F0.8637885451316833
F0.05851436033844948
F-0.04638620465993881
F-0.5164112448692322
I-1
I224
tp676
tp677
Rp678
ag1
(g2
g3
(F-0.19167129695415497
F0.5640347003936768
F0.7758239507675171
F0.2079046070575714
F-0.14543983340263367
F-1.1227954626083374
F-1.2740528583526611
F0.08448614925146103
F-0.159757599234581
F0.9901404976844788
F-0.17307092249393463
F-0.1042337492108345
F-0.46310943365097046
I-1
I225
tp679
tp680
Rp681
ag1
(g2
g3
(F-0.19047904014587402
F0.5533392429351807
F0.7691513895988464
F0.25678718090057373
F-0.15125742554664612
F-0.2897161543369293
F-2.614426374435425
F-0.021532593294978142
F-0.23012913763523102
F0.8652066588401794
F-0.17792253196239471
F-0.12435953319072723
F-0.45583388209342957
I-1
I226
tp682
tp683
Rp684
ag1
(g2
g3
(F-0.1876383125782013
F0.5203475952148438
F0.8166309595108032
F0.16475525498390198
F0.20477928221225739
F-0.32927578687667847
F-2.9867522716522217
F0.07621962577104568
F-0.29183143377304077
F0.8615904450416565
F-0.19054488837718964
F-0.05144064500927925
F-0.45535704493522644
I-1
I227
tp685
tp686
Rp687
ag1
(g2
g3
(F-0.2185617834329605
F0.5163520574569702
F0.8022313117980957
F0.20502755045890808
F-0.20361575484275818
F0.7725763916969299
F-0.7248721122741699
F-0.6014905571937561
F-0.22621645033359528
F1.4626333713531494
F-0.17810483276844025
F-0.07409823685884476
F-0.45457813143730164
I-1
I228
tp688
tp689
Rp690
ag1
(g2
g3
(F-0.25864171981811523
F0.5104553699493408
F0.8002783060073853
F0.1791498363018036
F-0.08493685722351074
F0.7818845510482788
F-0.7353437542915344
F-0.23104874789714813
F-0.4530029892921448
F0.8939307332038879
F-0.12129604816436768
F-0.05600603669881821
F-0.46926894783973694
I-1
I229
tp691
tp692
Rp693
ag1
(g2
g3
(F-0.28479325771331787
F0.5112640857696533
F0.7948849201202393
F0.160187765955925
F-0.046540744602680206
F0.6224824786186218
F0.5724511742591858
F-0.2033228725194931
F-0.4022742211818695
F0.9793999791145325
F-0.09390262514352798
F-0.053804025053977966
F-0.47295525670051575
I-1
I230
tp694
tp695
Rp696
ag1
(g2
g3
(F-0.2893247902393341
F0.5350084900856018
F0.782535195350647
F0.13302594423294067
F0.0034905560314655304
F0.12216945737600327
F-0.4014139175415039
F-0.17783012986183167
F-0.4185199439525604
F0.8208845257759094
F0.039259765297174454
F-0.053706761449575424
F-0.47479042410850525
I-1
I231
tp697
tp698
Rp699
ag1
(g2
g3
(F-0.20696109533309937
F0.6043315529823303
F0.7603439092636108
F0.11759182065725327
F-0.47820615768432617
F0.05003130063414574
F-2.00939679145813
F0.46328964829444885
F-0.19991537928581238
F0.9814771413803101
F-0.11756116151809692
F-0.11323217302560806
F-0.42519471049308777
I-1
I232
tp700
tp701
Rp702
ag1
(g2
g3
(F-0.715507447719574
F-0.24986785650253296
F-0.19222953915596008
F0.623428463935852
F-0.2873890995979309
F0.20012520253658295
F0.3199676275253296
F-0.17125552892684937
F-0.3515200614929199
F0.9260696768760681
F0.03884036839008331
F0.2933773398399353
F-0.35398244857788086
I-1
I233
tp703
tp704
Rp705
ag1
(g2
g3
(F-0.748188853263855
F-0.08332759886980057
F-0.25249359011650085
F0.6078792810440063
F0.2524835467338562
F-0.5712876319885254
F0.7527965307235718
F0.15191903710365295
F-0.38878703117370605
F1.1102516651153564
F0.17001605033874512
F0.2818782925605774
F-0.3077406585216522
I-1
I234
tp706
tp707
Rp708
ag1
(g2
g3
(F-0.7362353801727295
F-0.13942794501781464
F-0.15255266427993774
F0.6443953514099121
F-0.18034538626670837
F-1.984962821006775
F0.9494311809539795
F0.13897350430488586
F-0.15760575234889984
F1.0970547199249268
F0.07628710567951202
F0.23435841500759125
F-0.38029372692108154
I-1
I235
tp709
tp710
Rp711
ag1
(g2
g3
(F-0.7544463276863098
F-0.1906764805316925
F-0.020166248083114624
F0.6277313828468323
F-0.35138264298439026
F-1.0157517194747925
F-1.716189980506897
F0.12460745126008987
F-0.1563720703125
F1.0130399465560913
F0.04172832891345024
F0.24119000136852264
F-0.37654903531074524
I-1
I236
tp712
tp713
Rp714
ag1
(g2
g3
(F-0.7490127682685852
F-0.26824191212654114
F-0.12882128357887268
F0.5919726490974426
F-0.1954711377620697
F0.6538974642753601
F1.032041072845459
F-0.04445997253060341
F0.014903713949024677
F0.8115819096565247
F-0.019784212112426758
F0.2760346829891205
F-0.3605855107307434
I-1
I237
tp715
tp716
Rp717
ag1
(g2
g3
(F-0.7851856350898743
F-0.1945020705461502
F-0.06815770268440247
F0.5839582681655884
F-0.11984241753816605
F-0.6818219423294067
F-2.235119342803955
F0.44702431559562683
F-0.39804384112358093
F0.8862985372543335
F0.032494980841875076
F0.29604437947273254
F-0.35118764638900757
I-1
I238
tp718
tp719
Rp720
ag1
(g2
g3
(F-0.7499412298202515
F-0.25467655062675476
F-0.1948099285364151
F0.5785994529724121
F-0.5049670934677124
F0.32462170720100403
F0.5154387354850769
F-1.1552354097366333
F-0.4131649434566498
F0.728590726852417
F-0.0264679417014122
F0.3180912733078003
F-0.34178996086120605
I-1
I239
tp721
tp722
Rp723
ag1
(g2
g3
(F-0.7714394927024841
F-0.06044749543070793
F-0.19055183231830597
F0.6040838956832886
F0.7981737852096558
F-1.4357819557189941
F1.15304696559906
F0.1421303153038025
F-0.09957754611968994
F1.1379541158676147
F0.18939243257045746
F0.29749658703804016
F-0.33819466829299927
I-1
I240
tp724
tp725
Rp726
ag1
(g2
g3
(F-0.7546728849411011
F-0.11569786816835403
F-0.08308808505535126
F0.6404526233673096
F0.11053427308797836
F-2.044302225112915
F0.4118855893611908
F0.05296928063035011
F-0.3499200940132141
F1.163791537284851
F0.10037072747945786
F0.2600967288017273
F-0.4106808006763458
I-1
I241
tp727
tp728
Rp729
ag1
(g2
g3
(F-0.7389587163925171
F-0.2740873098373413
F-0.10000738501548767
F0.6073012948036194
F-0.4235207736492157
F0.5096211433410645
F1.0902169942855835
F-0.04445607215166092
F-0.0613342709839344
F0.7531540989875793
F-0.05052999034523964
F0.2945430874824524
F-0.39658284187316895
I-1
I242
tp730
tp731
Rp732
ag1
(g2
g3
(F-0.7598841786384583
F-0.2260752022266388
F-0.09706860780715942
F0.6017009615898132
F-0.30484187602996826
F0.4700615406036377
F2.1501824855804443
F0.6130213141441345
F-0.19336916506290436
F0.8439304828643799
F-0.008419882506132126
F0.3052191436290741
F-0.39465561509132385
I-1
I243
tp733
tp734
Rp735
ag1
(g2
g3
(F-0.7802271842956543
F-0.24676914513111115
F-0.0812787413597107
F0.5689854621887207
F-0.3420744836330414
F0.4723885655403137
F-1.392731785774231
F-0.4207351505756378
F-0.24315477907657623
F0.9172198176383972
F-0.045406874269247055
F0.333134263753891
F-0.3750304877758026
I-1
I244
tp736
tp737
Rp738
ag1
(g2
g3
(F-0.752033531665802
F-0.20411090552806854
F-0.26008087396621704
F0.5702126622200012
F-0.038396116346120834
F0.9924814105033875
F0.18965353071689606
F-0.16443310678005219
F-0.4190276563167572
F0.9195095300674438
F-0.01692594401538372
F0.3473151624202728
F-0.3656737208366394
I-1
I245
tp739
tp740
Rp741
ag1
(g2
g3
(F-0.7401891350746155
F-0.18283316493034363
F-0.3049367666244507
F0.5707066059112549
F0.07795574516057968
F0.7807210087776184
F1.2065688371658325
F0.0035668949130922556
F-0.366624653339386
F0.9602079391479492
F0.029612360522150993
F0.3489058315753937
F-0.36565762758255005
I-1
I246
tp742
tp743
Rp744
ag1
(g2
g3
(F-0.7181892395019531
F-0.15395493805408478
F-0.3353148400783539
F0.5899714827537537
F-0.10238964110612869
F0.3060053884983063
F-0.4223572611808777
F-0.019548585638403893
F-0.44745326042175293
F0.8094848990440369
F0.09893250465393066
F0.3490602672100067
F-0.3563879430294037
I-1
I247
tp745
tp746
Rp747
ag1
(g2
g3
(F-0.7355117201805115
F-0.14552675187587738
F-0.27788135409355164
F0.600521981716156
F1.0669466257095337
F-1.7126994132995605
F0.20826983451843262
F0.16034692525863647
F-0.06897713243961334
F1.095582127571106
F0.09669092297554016
F0.3205265998840332
F-0.3834301233291626
I-1
I248
tp748
tp749
Rp750
ag1
(g2
g3
(F-0.7227901816368103
F-0.1927909255027771
F-0.21644318103790283
F0.6273424029350281
F-0.09075445681810379
F-2.0431387424468994
F1.1344306468963623
F0.2048589587211609
F-0.19840791821479797
F1.046916127204895
F-0.00502850953489542
F0.28773877024650574
F-0.4206985831260681
I-1
I249
tp751
tp752
Rp753
ag1
(g2
g3
(F-0.719850480556488
F-0.32563886046409607
F-0.15741612017154694
F0.592448353767395
F-0.45028170943260193
F0.2303766906261444
F-2.678419828414917
F-0.07113911211490631
F-0.3417928218841553
F0.7247102856636047
F-0.12002123892307281
F0.2825489938259125
F-0.39944806694984436
I-1
I250
tp754
tp755
Rp756
ag1
(g2
g3
(F-0.6997524499893188
F-0.3061692416667938
F-0.2861345708370209
F0.5785622000694275
F0.030251484364271164
F0.8493686318397522
F1.2461284399032593
F0.07419659197330475
F0.054199203848838806
F0.8868488073348999
F-0.11429321765899658
F0.30006611347198486
F-0.3882201611995697
I-1
I251
tp757
tp758
Rp759
ag1
(g2
g3
(F-0.7117464542388916
F-0.27239367365837097
F-0.35195234417915344
F0.5434595942497253
F-0.07446519285440445
F0.7039287686347961
F0.29204317927360535
F-0.2988815903663635
F-0.4044293463230133
F0.9423628449440002
F-0.07632434368133545
F0.3392728865146637
F-0.3453611433506012
I-1
I252
tp760
tp761
Rp762
ag1
(g2
g3
(F-0.717165470123291
F-0.24106942117214203
F-0.19274094700813293
F0.6248282194137573
F0.42933836579322815
F-1.5893664360046387
F1.2403109073638916
F-0.19349847733974457
F-0.40186622738838196
F1.3746190071105957
F0.0064151352271437645
F0.25893399119377136
F-0.3792150318622589
I-1
I253
tp763
tp764
Rp765
ag1
(g2
g3
(F-0.7128127217292786
F-0.28640493750572205
F-0.17428109049797058
F0.6160328984260559
F-0.07795574516057968
F0.389778733253479
F-2.7412497997283936
F0.3422086834907532
F-0.19187211990356445
F0.979740560054779
F-0.08300234377384186
F0.2561115622520447
F-0.3320171535015106
I-1
I254
tp766
tp767
Rp768
ag1
(g2
g3
(F0.03598412498831749
F-0.5709637403488159
F-0.8161368370056152
F-0.08140310645103455
F0.5061306357383728
F-0.08959093689918518
F-1.4206562042236328
F0.2518438696861267
F-0.5259847640991211
F0.9715023040771484
F-0.17277950048446655
F-0.022725801914930344
F-0.29403817653656006
I-1
I255
tp769
tp770
Rp771
ag1
(g2
g3
(F0.26231709122657776
F-0.5489091277122498
F-0.7419525980949402
F-0.28177139163017273
F-0.1710372418165207
F-1.342700481414795
F-0.5166022777557373
F0.13115958869457245
F-0.15587875247001648
F0.9643394947052002
F-0.08973000198602676
F-0.14331184327602386
F-0.47631996870040894
I-1
I256
tp772
tp773
Rp774
ag1
(g2
g3
(F0.2661934196949005
F-0.50902259349823
F-0.7848628759384155
F-0.23243823647499084
F-0.8493686318397522
F-0.6713502407073975
F0.601539134979248
F1.2419443130493164
F-0.6923500895500183
F1.1156976222991943
F-0.11323822289705276
F-0.06613823771476746
F-0.4998931884765625
I-1
I257
tp775
tp776
Rp777
ag1
(g2
g3
(F0.36907097697257996
F-0.4778144359588623
F-0.7635399699211121
F-0.22910016775131226
F-0.1500938981771469
F0.9098715782165527
F0.0802827849984169
F-0.4080296754837036
F-0.5333355069160461
F0.8853786587715149
F-0.060106195509433746
F-0.049963053315877914
F-0.5201531648635864
I-1
I258
tp778
tp779
Rp780
ag1
(g2
g3
(F0.43619871139526367
F-0.5087107419967651
F-0.715752899646759
F-0.19657574594020844
F-0.11751538515090942
F0.5549983978271484
F-0.16871020197868347
F0.06066465750336647
F-0.3663671910762787
F0.8104636073112488
F0.1112532913684845
F-0.05748029425740242
F-0.513699471950531
I-1
I259
tp781
tp782
Rp783
ag1
(g2
g3
(F0.19553880393505096
F-0.5582700371742249
F-0.7714227437973022
F-0.23453398048877716
F-0.3118229806423187
F-1.1379212141036987
F-1.4008764028549194
F0.09030724316835403
F-0.1153184100985527
F0.9774709939956665
F-0.16772018373012543
F-0.11248183995485306
F-0.4789052903652191
I-1
I260
tp784
tp785
Rp786
ag1
(g2
g3
(F0.2659963071346283
F-0.512861967086792
F-0.7446562647819519
F-0.3342241644859314
F-0.7248721122741699
F0.39443281292915344
F0.8109725117683411
F-0.15675236284732819
F-0.10915833711624146
F0.8244833946228027
F-0.1505463421344757
F-0.12319144606590271
F-0.4780474305152893
I-1
I261
tp787
tp788
Rp789
ag1
(g2
g3
(F0.26777398586273193
F-0.4880368411540985
F-0.7877312898635864
F-0.26381203532218933
F-0.38396114110946655
F0.11053427308797836
F0.48867782950401306
F0.746337890625
F-0.34496238827705383
F1.021755337715149
F-0.14879897236824036
F-0.06562179327011108
F-0.48137366771698
I-1
I262
tp790
tp791
Rp792
ag1
(g2
g3
(F0.30285364389419556
F-0.47801443934440613
F-0.7949746251106262
F-0.21862609684467316
F-0.009308149106800556
F0.6829854249954224
F-0.6120107769966125
F0.3757701516151428
F-0.11395301669836044
F1.093453288078308
F-0.11840401589870453
F-0.04511849209666252
F-0.4877176582813263
I-1
I263
tp793
tp794
Rp795
ag1
(g2
g3
(F0.34754762053489685
F-0.5239468812942505
F-0.7621476054191589
F-0.15434181690216064
F-0.048867784440517426
F0.8470415472984314
F-0.037232596427202225
F0.017406923696398735
F-0.3738977611064911
F0.8800980448722839
F0.024698525667190552
F-0.051327064633369446
F-0.497927188873291
I-1
I264
tp796
tp797
Rp798
ag1
(g2
g3
(F0.3540765047073364
F-0.5205603837966919
F-0.7663038372993469
F-0.12816160917282104
F0.23619428277015686
F-0.7365072965621948
F0.5003130435943604
F0.3359586298465729
F-0.3516783118247986
F1.108586311340332
F0.03384821116924286
F-0.049348440021276474
F-0.49513503909111023
I-1
I265
tp799
tp800
Rp801
ag1
(g2
g3
(F0.22828719019889832
F-0.579240620136261
F-0.7626299858093262
F-0.17538879811763763
F-0.1733642816543579
F-0.18616297841072083
F-2.8634192943573
F0.0071679106913506985
F-0.206594318151474
F0.9326616525650024
F-0.19052936136722565
F-0.11340967565774918
F-0.42983487248420715
I-1
I266
tp802
tp803
Rp804
ag1
(g2
g3
(F0.21427367627620697
F-0.5453205108642578
F-0.7850280404090881
F-0.20110578835010529
F-0.18034538626670837
F0.6410987973213196
F0.6050297021865845
F0.045502711087465286
F0.002010529162362218
F0.8179382681846619
F-0.16391608119010925
F-0.10209918022155762
F-0.4362396001815796
I-1
I267
tp805
tp806
Rp807
ag1
(g2
g3
(F0.21729014813899994
F-0.5528568625450134
F-0.7867583632469177
F-0.16776682436466217
F-0.4130491018295288
F0.24550242722034454
F2.532979965209961
F0.46910929679870605
F-0.31765663623809814
F0.8059304356575012
F-0.14999480545520782
F-0.08549060672521591
F-0.44261109828948975
I-1
I268
tp808
tp809
Rp810
ag1
(g2
g3
(F0.2520255744457245
F-0.5054597854614258
F-0.7957597970962524
F-0.2185409665107727
F-0.13380464911460876
F0.6946206092834473
F-0.8819471001625061
F-0.29039520025253296
F-0.43840402364730835
F0.8172072768211365
F-0.10664171725511551
F-0.05198191478848457
F-0.44516411423683167
I-1
I269
tp811
tp812
Rp813
ag1
(g2
g3
(F0.3030737340450287
F-0.5246973037719727
F-0.7883210182189941
F-0.10671992599964142
F0.08493685722351074
F0.07911926507949829
F0.6236459612846375
F-0.3530814051628113
F-0.5129555463790894
F0.9090090990066528
F0.009225236251950264
F-0.049466799944639206
F-0.4580978453159332
I-1
I270
tp814
tp815
Rp816
ag1
(g2
g3
(F0.2868621349334717
F-0.5359716415405273
F-0.7898739576339722
F-0.08089424669742584
F0.016289260238409042
F-0.23503077030181885
F1.8255606889724731
F-0.2991412281990051
F-0.32308322191238403
F0.9554967880249023
F0.009212562814354897
F-0.050362780690193176
F-0.4553256630897522
I-1
I271
tp817
tp818
Rp819
ag1
(g2
g3
(F0.0829528197646141
F-0.6174687743186951
F-0.7793518304824829
F0.06679867208003998
F0.030251484364271164
F-1.3240841627120972
F1.6568505764007568
F-0.011802081018686295
F-0.16288363933563232
F0.9516423344612122
F-0.11307979375123978
F-0.055706702172756195
F-0.4414852261543274
I-1
I272
tp820
tp821
Rp822
ag1
(g2
g3
(F-0.10692158341407776
F-0.6009848117828369
F-0.7837715148925781
F0.1144004836678505
F-1.180971384048462
F-0.5398726463317871
F2.410810708999634
F0.18611463904380798
F-0.291615754365921
F0.8635661005973816
F-0.19543488323688507
F0.051125407218933105
F-0.40930959582328796
I-1
I273
tp823
tp824
Rp825
ag1
(g2
g3
(F-0.22833935916423798
F-0.5728436708450317
F-0.7760916948318481
F0.1318831741809845
F0.2990242838859558
F-0.008144630119204521
F-1.4194927215576172
F-0.508534848690033
F-0.08335697650909424
F0.9527196288108826
F-0.2314416915178299
F0.08367163687944412
F-0.3822457492351532
I-1
I274
tp826
tp827
Rp828
ag1
(g2
g3
(F-0.27115365862846375
F-0.5007271766662598
F-0.7761552929878235
F0.2707975506782532
F-0.037232596427202225
F-0.1268235296010971
F1.6312531232833862
F-0.051623325794935226
F-0.4610554277896881
F0.8693828582763672
F-0.17178276181221008
F0.17228631675243378
F-0.37795305252075195
I-1
I275
tp829
tp830
Rp831
ag1
(g2
g3
(F-0.359073668718338
F-0.46694502234458923
F-0.7363922595977783
F0.33279889822006226
F0.022106854245066643
F-0.138458713889122
F0.5224198698997498
F0.04078229144215584
F-0.4802704453468323
F0.9159201979637146
F-0.1348010152578354
F0.20665206015110016
F-0.3749450445175171
I-1
I276
tp832
tp833
Rp834
ag1
(g2
g3
(F-0.7611388564109802
F-0.219290629029274
F-0.1525796502828598
F0.5910151600837708
F0.20943336188793182
F0.10471668094396591
F-0.07679223269224167
F-0.035814378410577774
F-0.19181300699710846
F1.1525375843048096
F0.032284267246723175
F0.28146877884864807
F-0.34387511014938354
I-1
I277
tp835
tp836
Rp837
ag1
(g2
g3
(F-0.7762091159820557
F-0.14925798773765564
F-0.20835047960281372
F0.5760310888290405
F0.06515704095363617
F0.6957841515541077
F0.6283000707626343
F-0.19264233112335205
F-0.3758000135421753
F0.9367833137512207
F0.08364090323448181
F0.3006412386894226
F-0.3205924332141876
I-1
I278
tp838
tp839
Rp840
ag1
(g2
g3
(F-0.7687019109725952
F-0.11926031857728958
F-0.2058594822883606
F0.5937141180038452
F0.3013513386249542
F0.891255259513855
F0.3548731803894043
F-0.004476489964872599
F-0.30396851897239685
F0.940956711769104
F0.11998577415943146
F0.2911362648010254
F-0.3178723156452179
I-1
I279
tp841
tp842
Rp843
ag1
(g2
g3
(F-0.7626004815101624
F-0.10802209377288818
F-0.20631477236747742
F0.6034948825836182
F0.27109983563423157
F1.0285505056381226
F-0.045377228409051895
F-0.057488009333610535
F-0.3073475956916809
F0.9007648229598999
F0.137252077460289
F0.2868124842643738
F-0.3188245892524719
I-1
I280
tp844
tp845
Rp846
ag1
(g2
g3
(F-0.7611578106880188
F-0.09308233857154846
F-0.2073991298675537
F0.6074210405349731
F0.019779816269874573
F0.822607696056366
F0.009308149106800556
F0.06213745102286339
F-0.3510826528072357
F0.8810789585113525
F0.15541917085647583
F0.28164198994636536
F-0.3114480972290039
I-1
I281
tp847
tp848
Rp849
ag1
(g2
g3
(F-0.769791841506958
F-0.08584888279438019
F-0.19710928201675415
F0.6009981632232666
F-0.05933944880962372
F0.5375456213951111
F-0.26760929822921753
F0.02031632885336876
F-0.34548622369766235
F0.8752231597900391
F0.1673198789358139
F0.28460437059402466
F-0.304019033908844
I-1
I282
tp850
tp851
Rp852
ag1
(g2
g3
(F-0.7747145295143127
F-0.08214431256055832
F-0.20373953878879547
F0.5929251313209534
F-0.06166648864746094
F0.2175779789686203
F-0.1035531610250473
F-0.20841151475906372
F-0.4921169877052307
F0.9601786136627197
F0.16831353306770325
F0.2901555001735687
F-0.2956482768058777
I-1
I283
tp853
tp854
Rp855
ag1
(g2
g3
(F-0.7778268456459045
F-0.06184455007314682
F-0.17643769085407257
F0.6000255346298218
F0.32578521966934204
F-0.7783939838409424
F0.5049670934677124
F0.3344877064228058
F-0.3502119779586792
F1.061588168144226
F0.1918315589427948
F0.2767428457736969
F-0.3031415641307831
I-1
I284
tp856
tp857
Rp858
ag1
(g2
g3
(F-0.7496063709259033
F-0.0971791222691536
F-0.09630656242370605
F0.6475892066955566
F0.29320669174194336
F-2.32936429977417
F0.7911926507949829
F-0.34963348507881165
F-0.3673177659511566
F1.2257884740829468
F0.132888525724411
F0.23797695338726044
F-0.371928870677948
I-1
I285
tp859
tp860
Rp861
ag1
(g2
g3
(F-0.753229022026062
F-0.14991268515586853
F0.014737099409103394
F0.6402774453163147
F-0.2059427946805954
F-0.7202180624008179
F-2.1920690536499023
F0.04753760248422623
F-0.20442678034305573
F0.9752856492996216
F0.04985366389155388
F0.23566363751888275
F-0.40158697962760925
I-1
I286
tp862
tp863
Rp864
ag1
(g2
g3
(F-0.7409487962722778
F-0.249851793050766
F-0.0887104868888855
F0.617008626461029
F-0.5584889650344849
F0.11635186523199081
F0.6864759922027588
F-0.19127972424030304
F-0.1645030677318573
F0.7589810490608215
F-0.026389431208372116
F0.2611022889614105
F-0.3940211832523346
I-1
I287
tp865
tp866
Rp867
ag1
(g2
g3
(F-0.7639813423156738
F-0.18341878056526184
F-0.06833904981613159
F0.6148334741592407
F-0.9424501061439514
F-0.024433892220258713
F1.9965980052947998
F0.8942199349403381
F-0.6839734315872192
F0.9285929203033447
F0.05411720648407936
F0.27788543701171875
F-0.38186296820640564
I-1
I288
tp868
tp869
Rp870
ag1
(g2
g3
(F-0.7862274646759033
F-0.2013222575187683
F-0.05629090964794159
F0.5815043449401855
F-0.872639000415802
F0.31415003538131714
F1.770875334739685
F0.2031976282596588
F-0.42811450362205505
F0.9855949282646179
F0.021850313991308212
F0.3168226182460785
F-0.36401697993278503
I-1
I289
tp871
tp872
Rp873
ag1
(g2
g3
(F-0.7683844566345215
F-0.12770892679691315
F-0.19756020605564117
F0.5951855778694153
F0.09657204896211624
F0.727199137210846
F1.2391473054885864
F0.014014708809554577
F-0.38483110070228577
F0.9156517386436462
F0.09032472968101501
F0.32153961062431335
F-0.3537914454936981
I-1
I290
tp874
tp875
Rp876
ag1
(g2
g3
(F-0.7575724720954895
F-0.1146896630525589
F-0.08982621133327484
F0.6362874507904053
F0.727199137210846
F-2.36543345451355
F0.28157150745391846
F-0.45426276326179504
F-0.2800685167312622
F0.9778524041175842
F0.11600007116794586
F0.2685960531234741
F-0.4032149314880371
I-1
I291
tp877
tp878
Rp879
ag1
(g2
g3
(F-0.7612576484680176
F-0.1365186721086502
F0.026232928037643433
F0.6333730816841125
F-0.2652822434902191
F-1.820906639099121
F0.9424501061439514
F0.2522740066051483
F-0.1860409677028656
F1.077851414680481
F0.061100564897060394
F0.2566823363304138
F-0.42645037174224854
I-1
I292
tp880
tp881
Rp882
ag1
(g2
g3
(F-0.7565497756004333
F-0.18232253193855286
F0.0432281494140625
F0.6265161633491516
F-0.23852132260799408
F-0.3211311399936676
F-3.0426013469696045
F0.044609807431697845
F-0.1993197798728943
F0.9394879937171936
F-0.006246733013540506
F0.26668015122413635
F-0.4245409667491913
I-1
I293
tp883
tp884
Rp885
ag1
(g2
g3
(F-0.7472114562988281
F-0.22926940023899078
F-0.15397757291793823
F0.6044846177101135
F-0.5119482278823853
F0.6771678328514099
F1.2542730569839478
F-0.011382048949599266
F-0.007935610599815845
F0.8383806943893433
F-0.055951837450265884
F0.29807740449905396
F-0.4030424654483795
I-1
I294
tp886
tp887
Rp888
ag1
(g2
g3
(F-0.7485857009887695
F-0.2203495055437088
F-0.22065936028957367
F0.5851284265518188
F-0.6108472943305969
F0.35021910071372986
F1.4008764028549194
F0.28639838099479675
F-0.5527225732803345
F1.0655109882354736
F-0.04334273561835289
F0.3496363162994385
F-0.37121784687042236
I-1
I295
tp889
tp890
Rp891
ag1
(g2
g3
(F-0.7502052187919617
F-0.21387046575546265
F-0.2350471019744873
F0.5798316597938538
F0.06748408079147339
F0.8365699052810669
F-0.6236459612846375
F-0.29136645793914795
F-0.4658396244049072
F0.795539915561676
F-0.03599042817950249
F0.35343432426452637
F-0.3656359016895294
I-1
I296
tp892
tp893
Rp894
ag1
(g2
g3
(F-0.7251034379005432
F-0.16101257503032684
F-0.31524667143821716
F0.5906942486763
F0.004654074553400278
F-0.2885526120662689
F1.6812844276428223
F-0.19865193963050842
F-0.486075758934021
F1.1028767824172974
F0.11073874682188034
F0.34557685256004333
F-0.35640937089920044
I-1
I297
tp895
tp896
Rp897
ag1
(g2
g3
(F-0.7465950846672058
F-0.12466207146644592
F-0.2674410343170166
F0.5962638854980469
F0.5247468948364258
F-0.8307523131370544
F-0.20012520253658295
F0.16525773704051971
F-0.31665730476379395
F1.0471720695495605
F0.12237011641263962
F0.33013978600502014
F-0.367621511220932
I-1
I298
tp898
tp899
Rp900
ag1
(g2
g3
(F-0.729531466960907
F-0.1943826973438263
F-0.16406381130218506
F0.6348878145217896
F0.2164144665002823
F-2.131566047668457
F1.4066940546035767
F-0.19226989150047302
F-0.43586644530296326
F1.3931325674057007
F0.036936238408088684
F0.28837913274765015
F-0.41605913639068604
I-1
I299
tp901
tp902
Rp903
ag1
(g2
g3
(F-0.722899854183197
F-0.28355756402015686
F-0.2279466986656189
F0.5874108076095581
F-0.21525095403194427
F0.6434258222579956
F0.8679848909378052
F0.033106133341789246
F-0.023238571360707283
F0.8055209517478943
F-0.08972726762294769
F0.2958964407444
F-0.3817623257637024
I-1
I300
tp904
tp905
Rp906
ag1
(g2
g3
(F-0.7138094305992126
F-0.2337147295475006
F-0.3675149977207184
F0.5484399795532227
F0.012798705138266087
F0.5561618804931641
F0.938959538936615
F-0.11750636249780655
F-0.43093767762184143
F0.9187930226325989
F-0.03184443339705467
F0.3245353698730469
F-0.32230183482170105
I-1
I301
tp907
tp908
Rp909
ag1
(g2
g3
(F-0.7121310234069824
F-0.030050411820411682
F-0.12782222032546997
F0.6896578669548035
F0.015125742182135582
F-0.3769800364971161
F1.998924970626831
F-0.31329914927482605
F-0.16474010050296783
F0.8846015930175781
F0.17601554095745087
F0.19298112392425537
F-0.36203253269195557
I-1
I302
tp910
tp911
Rp912
ag1
(g2
g3
(F-0.7106125950813293
F0.16278566420078278
F0.13067762553691864
F0.6719033718109131
F-0.2408483624458313
F-1.114650845527649
F5.181148529052734
F-0.18536151945590973
F-0.5445286631584167
F0.7210675477981567
F0.22796182334423065
F0.0647137463092804
F-0.39064839482307434
I-1
I303
tp913
tp914
Rp915
ag1
(g2
g3
(F-0.6587328314781189
F0.3095303475856781
F0.37115228176116943
F0.5766351222991943
F-0.9982990026473999
F-1.1798079013824463
F5.861806869506836
F0.40499618649482727
F-0.47599339485168457
F0.9432841539382935
F0.199075385928154
F-0.04006323963403702
F-0.42004600167274475
I-1
I304
tp916
tp917
Rp918
ag1
(g2
g3
(F-0.5978856086730957
F0.37929779291152954
F0.5072792172431946
F0.4912574291229248
F-0.4153761565685272
F-0.3676718771457672
F0.9156891703605652
F0.10050691664218903
F-0.16144146025180817
F0.8859226107597351
F0.15306219458580017
F-0.06821785122156143
F-0.43134862184524536
I-1
I305
tp919
tp920
Rp921
ag1
(g2
g3
(F-0.5351703763008118
F0.41079169511795044
F0.5912949442863464
F0.4418295919895172
F-0.3188041150569916
F-0.23503077030181885
F-0.38512468338012695
F-0.1559533029794693
F-0.25609728693962097
F0.9591726660728455
F0.11084336042404175
F-0.08628366887569427
F-0.4453626573085785
I-1
I306
tp922
tp923
Rp924
ag1
(g2
g3
(F-0.537592351436615
F0.42977187037467957
F0.5998151302337646
F0.408059686422348
F-0.3444015085697174
F0.17569132149219513
F0.9145256280899048
F0.008146987296640873
F-0.19057559967041016
F0.9742990732192993
F0.11186077445745468
F-0.07898858934640884
F-0.44994479417800903
I-1
I307
tp925
tp926
Rp927
ag1
(g2
g3
(F-0.5354422330856323
F0.43667110800743103
F0.6056782603263855
F0.3946821987628937
F-0.16987371444702148
F0.3804706037044525
F-0.039559632539749146
F0.020550750195980072
F-0.17674292623996735
F1.00425124168396
F0.11741352081298828
F-0.07343713194131851
F-0.4517597258090973
I-1
I308
tp928
tp929
Rp930
ag1
(g2
g3
(F-0.3579210638999939
F0.5229604244232178
F0.7088740468025208
F0.3096817433834076
F-0.06399352848529816
F-2.2071948051452637
F1.968673586845398
F-0.08734055608510971
F-0.1575806438922882
F1.2545486688613892
F-0.005763471592217684
F-0.13937319815158844
F-0.4799880385398865
I-1
I309
tp931
tp932
Rp933
ag1
(g2
g3
(F-0.2787722945213318
F0.5065798759460449
F0.7488018870353699
F0.3239734470844269
F-0.14543983340263367
F-0.3455650210380554
F-1.882573127746582
F-0.0735771507024765
F-0.20267032086849213
F0.8328014612197876
F-0.09425186365842819
F-0.1406482607126236
F-0.47815507650375366
I-1
I310
tp934
tp935
Rp936
ag1
(g2
g3
(F-0.4318826198577881
F0.5035345554351807
F0.723454475402832
F0.19116505980491638
F0.05817593261599541
F-0.09540852904319763
F1.3461910486221313
F-0.2650248408317566
F-0.5086398720741272
F1.0867927074432373
F0.10682390630245209
F-0.04843088984489441
F-0.5173447132110596
I-1
I311
tp937
tp938
Rp939
ag1
(g2
g3
(F-0.2520352005958557
F0.5005640983581543
F0.7712905406951904
F0.30170345306396484
F-0.32927578687667847
F0.7039287686347961
F0.7388343214988708
F-0.12881286442279816
F-0.08535655587911606
F0.7662869095802307
F-0.16668850183486938
F-0.10424281656742096
F-0.4788511395454407
I-1
I312
tp940
tp941
Rp942
ag1
(g2
g3
(F-0.22232119739055634
F0.4828963875770569
F0.8077743649482727
F0.2547253966331482
F-0.20128872990608215
F0.3118229806423187
F-2.176943302154541
F-0.46891242265701294
F-0.05956774577498436
F0.9454197883605957
F-0.18338407576084137
F-0.06061216816306114
F-0.4767149090766907
I-1
I313
tp943
tp944
Rp945
ag1
(g2
g3
(F-0.2891474664211273
F0.4963860809803009
F0.7940694093704224
F0.19861695170402527
F0.06981112062931061
F1.2216945886611938
F-0.4944954216480255
F0.062107205390930176
F-0.2782236933708191
F0.8313890099525452
F-0.021814828738570213
F-0.0511377677321434
F-0.5053398609161377
I-1
I314
tp946
tp947
Rp948
ag1
(g2
g3
(F-0.3480605483055115
F0.5237200856208801
F0.7669244408607483
F0.12805522978305817
F-0.08144630491733551
F0.6189919114112854
F-0.3990868926048279
F0.057507697492837906
F-0.35981401801109314
F0.8316469788551331
F0.027486780658364296
F-0.04767933860421181
F-0.505311131477356
I-1
I315
tp949
tp950
Rp951
ag1
(g2
g3
(F-0.2297164499759674
F0.5843846201896667
F0.7653989791870117
F0.14103056490421295
F0.19779816269874573
F-2.193232536315918
F0.986663818359375
F-0.10842183977365494
F-0.3880338966846466
F1.3135168552398682
F-0.09645789116621017
F-0.10412910580635071
F-0.47791579365730286
I-1
I316
tp952
tp953
Rp954
ag1
(g2
g3
(F-0.16237951815128326
F0.5590859055519104
F0.7795285582542419
F0.2310660034418106
F-0.3909422755241394
F-0.33858391642570496
F-2.462005376815796
F-0.026843298226594925
F-0.3321271538734436
F0.9180665016174316
F-0.1842510849237442
F-0.12067056447267532
F-0.43636390566825867
I-1
I317
tp955
tp956
Rp957
ag1
(g2
g3
(F-0.19901862740516663
F0.5476807355880737
F0.7784342169761658
F0.23340478539466858
F-0.3688354194164276
F-0.2990242838859558
F-0.8796200752258301
F-0.4795979857444763
F-0.29871922731399536
F0.7618562579154968
F-0.1816321462392807
F-0.12880854308605194
F-0.42900875210762024
I-1
I318
tp958
tp959
Rp960
ag1
(g2
g3
(F-0.20968444645404816
F0.5468365550041199
F0.7870216369628906
F0.19390526413917542
F-0.47820615768432617
F0.3467285633087158
F0.3769800364971161
F-0.0019159956136718392
F-0.011324801482260227
F0.7714184522628784
F-0.18422335386276245
F-0.1188066378235817
F-0.4307955503463745
I-1
I319
tp961
tp962
Rp963
ag1
(g2
g3
(F-0.21470558643341064
F0.5503614544868469
F0.7933896780014038
F0.14675404131412506
F0.13962224125862122
F-0.6806584000587463
F-2.8878531455993652
F0.38429099321365356
F-0.3501950800418854
F0.9091635346412659
F-0.19510100781917572
F-0.05135105922818184
F-0.43128037452697754
I-1
I320
tp964
tp965
Rp966
ag1
(g2
g3
(F-0.3523884415626526
F0.5289939641952515
F0.7591635584831238
F0.1402093768119812
F-0.138458713889122
F-0.006981112062931061
F0.389778733253479
F-0.09418371319770813
F-0.44379758834838867
F0.8355209827423096
F0.04645700380206108
F-0.06075046956539154
F-0.44983309507369995
I-1
I321
tp967
tp968
Rp969
ag1
(g2
g3
(F-0.25094354152679443
F0.5745903253555298
F0.7653775215148926
F0.14515794813632965
F0.6643691658973694
F-1.5742406845092773
F0.6085202693939209
F-0.10811172425746918
F-0.13661623001098633
F0.8564006686210632
F-0.03897826001048088
F-0.10306528955698013
F-0.4427128732204437
I-1
I322
tp970
tp971
Rp972
ag1
(g2
g3
(F-0.28647059202194214
F0.526195228099823
F0.7596471905708313
F0.2529618740081787
F-0.5375456213951111
F0.5003130435943604
F-2.093169927597046
F0.201943039894104
F-0.3035351037979126
F0.9514794945716858
F-0.040762968361377716
F-0.10034991055727005
F-0.442695289850235
I-1
I323
tp973
tp974
Rp975
ag1
(g2
g3
(F-0.562024712562561
F0.365272581577301
F0.5737850069999695
F0.4706113934516907
F0.2722633481025696
F1.0855629444122314
F-4.019957065582275
F-0.09103510528802872
F-0.40931347012519836
F0.8209046125411987
F0.12886597216129303
F-0.038510918617248535
F-0.44597309827804565
I-1
I324
tp976
tp977
Rp978
ag1
(g2
g3
(F-0.6170676946640015
F0.3170667886734009
F0.49651992321014404
F0.5216934680938721
F-0.8202806115150452
F0.8005008101463318
F-3.092632532119751
F-0.47489863634109497
F-0.42260217666625977
F0.9596112370491028
F0.16886450350284576
F0.015130085870623589
F-0.4363560676574707
I-1
I325
tp979
tp980
Rp981
ag1
(g2
g3
(F-0.7052827477455139
F0.2276090532541275
F0.39989519119262695
F0.5393091440200806
F-0.35021910071372986
F0.938959538936615
F-1.5532974004745483
F0.3171643614768982
F-0.29213541746139526
F0.8745571374893188
F0.18708854913711548
F0.0766843929886818
F-0.4257637858390808
I-1
I326
tp982
tp983
Rp984
ag1
(g2
g3
(F-0.7583150863647461
F0.14135560393333435
F0.2914787530899048
F0.5657006502151489
F0.137295201420784
F0.6969476938247681
F-1.911661148071289
F-0.012720486149191856
F-0.3695358633995056
F0.9665356874465942
F0.19713160395622253
F0.14003121852874756
F-0.40219637751579285
I-1
I327
tp985
tp986
Rp987
ag1
(g2
g3
(F-0.8060107827186584
F0.05085543915629387
F0.09913977980613708
F0.5813190937042236
F0.23270373046398163
F0.38628819584846497
F-1.2228580713272095
F-0.07011393457651138
F-0.35275837779045105
F0.9236602783203125
F0.1727622002363205
F0.22027531266212463
F-0.3729662001132965
I-1
I328
tp988
tp989
Rp990
ag1
(g2
g3
(F-0.7335333824157715
F-0.2315482646226883
F-0.14435561001300812
F0.6224755644798279
F-0.15358446538448334
F-0.08377334475517273
F-1.533517599105835
F-0.17179036140441895
F-0.15725374221801758
F0.9211622476577759
F-0.008194223046302795
F0.2578077018260956
F-0.37922418117523193
I-1
I329
tp991
tp992
Rp993
ag1
(g2
g3
(F-0.735325276851654
F-0.2822377681732178
F-0.1794399619102478
F0.5894405245780945
F-0.2059427946805954
F-0.027924448251724243
F0.08377334475517273
F0.20480568706989288
F-0.20905014872550964
F0.8245934247970581
F-0.04438817873597145
F0.27751636505126953
F-0.35872676968574524
I-1
I330
tp994
tp995
Rp996
ag1
(g2
g3
(F-0.745815098285675
F-0.2745699882507324
F-0.16835717856884003
F0.5831184983253479
F-0.2175779789686203
F0.08726389706134796
F0.6783313751220703
F0.28871336579322815
F-0.21540424227714539
F0.9298120737075806
F-0.03150906413793564
F0.28505590558052063
F-0.35219353437423706
I-1
I331
tp997
tp998
Rp999
ag1
(g2
g3
(F-0.7558116316795349
F-0.2623603940010071
F-0.14568114280700684
F0.5819734930992126
F-0.17452779412269592
F0.26760929822921753
F0.3467285633087158
F0.27003172039985657
F-0.30841681361198425
F0.9960598349571228
F-0.014122343622148037
F0.2889878749847412
F-0.3484615385532379
I-1
I332
tp1000
tp1001
Rp1002
ag1
(g2
g3
(F-0.7552276253700256
F-0.26448702812194824
F-0.16989262402057648
F0.5751648545265198
F-0.5305644869804382
F0.030251484364271164
F0.4572628140449524
F-0.5374630093574524
F-0.30040454864501953
F0.7594069242477417
F-0.01673731580376625
F0.2972458004951477
F-0.33729538321495056
I-1
I333
tp1003
tp1004
Rp1005
ag1
(g2
g3
(F-0.7649951577186584
F-0.21029993891716003
F-0.19055847823619843
F0.578138530254364
F-0.12216945737600327
F0.43050190806388855
F-0.13962224125862122
F-0.03997727483510971
F-0.4758499264717102
F0.7588350772857666
F0.02078656107187271
F0.3060755431652069
F-0.3279726803302765
I-1
I334
tp1006
tp1007
Rp1008
ag1
(g2
g3
(F-0.763617992401123
F-0.1422928422689438
F-0.21514549851417542
F0.5919061899185181
F0.3467285633087158
F0.9110351204872131
F-0.19314409792423248
F0.04267744719982147
F-0.29522964358329773
F0.8968915939331055
F0.0990821123123169
F0.29627296328544617
F-0.3243233263492584
I-1
I335
tp1009
tp1010
Rp1011
ag1
(g2
g3
(F-0.7527097463607788
F-0.13218171894550323
F-0.23304429650306702
F0.601370632648468
F0.036069076508283615
F0.872639000415802
F0.020943336188793182
F-0.04046427085995674
F-0.34984293580055237
F0.8781307935714722
F0.11820065975189209
F0.2938396632671356
F-0.31970682740211487
I-1
I336
tp1012
tp1013
Rp1014
ag1
(g2
g3
(F-0.7524797320365906
F-0.12187624722719193
F-0.2377440333366394
F0.6019954085350037
F-0.041886672377586365
F0.7481424808502197
F0.10588019341230392
F0.05945908650755882
F-0.3168460726737976
F0.8986045122146606
F0.13281100988388062
F0.29499590396881104
F-0.315067321062088
I-1
I337
tp1015
tp1016
Rp1017
ag1
(g2
g3
(F-0.7586058974266052
F-0.11931543052196503
F-0.2255547195672989
F0.5995050668716431
F-0.13264112174510956
F0.6434258222579956
F-0.5072941184043884
F0.09519249200820923
F-0.3285035192966461
F0.8608716130256653
F0.1410086452960968
F0.29421934485435486
F-0.3122933804988861
I-1
I338
tp1018
tp1019
Rp1020
ag1
(g2
g3
(F-0.76384437084198
F-0.1189369484782219
F-0.24555231630802155
F0.5848932266235352
F-0.044213708490133286
F0.13380464911460876
F-0.2524835467338562
F-0.2458670735359192
F-0.508607029914856
F0.8900414109230042
F0.13843385875225067
F0.3052311837673187
F-0.2992570996284485
I-1
I339
tp1021
tp1022
Rp1023
ag1
(g2
g3
(F-0.767229437828064
F-0.10778631269931793
F-0.19977575540542603
F0.5998591184616089
F0.8447145223617554
F-1.2344932556152344
F0.13264112174510956
F0.0310092493891716
F-0.14591453969478607
F1.0497843027114868
F0.1500236541032791
F0.2869982421398163
F-0.31882181763648987
I-1
I340
tp1024
tp1025
Rp1026
ag1
(g2
g3
(F-0.7451956272125244
F-0.14250609278678894
F-0.1273200660943985
F0.6388781070709229
F-0.4037409722805023
F-0.18150891363620758
F-2.076880693435669
F-0.089609794318676
F-0.2961498498916626
F0.7975063323974609
F-0.02548905648291111
F0.26024356484413147
F-0.38754454255104065
I-1
I341
tp1027
tp1028
Rp1029
ag1
(g2
g3
(F-0.7445722222328186
F-0.28238409757614136
F-0.12488314509391785
F0.5918410420417786
F-0.4025774598121643
F0.3641813397407532
F0.4560993015766144
F-0.09551350772380829
F-0.06617739796638489
F0.7475414276123047
F-0.04533053934574127
F0.2755671739578247
F-0.3754081130027771
I-1
I342
tp1030
tp1031
Rp1032
ag1
(g2
g3
(F-0.7510215640068054
F-0.2502524256706238
F-0.13107720017433167
F0.5967908501625061
F-0.4712250530719757
F0.05468537658452988
F3.2369089126586914
F0.6857442855834961
F-0.28688037395477295
F0.8617428541183472
F0.018579239025712013
F0.28011590242385864
F-0.38092663884162903
I-1
I343
tp1033
tp1034
Rp1035
ag1
(g2
g3
(F-0.7780060172080994
F-0.2196311503648758
F-0.11055544018745422
F0.5781405568122864
F-0.3455650210380554
F0.6248095035552979
F-0.5131117105484009
F-0.5448894500732422
F-0.12495172768831253
F1.3696075677871704
F-0.008293529972434044
F0.3136548101902008
F-0.3621894121170044
I-1
I344
tp1036
tp1037
Rp1038
ag1
(g2
g3
(F-0.7792650461196899
F-0.2006109058856964
F-0.12077502906322479
F0.5813044309616089
F-0.8761295080184937
F0.10006260126829147
F-2.102478265762329
F1.0222256183624268
F-0.8572022318840027
F1.2362114191055298
F0.010005051270127296
F0.31758812069892883
F-0.36030930280685425
I-1
I345
tp1039
tp1040
Rp1041
ag1
(g2
g3
(F-0.7908550500869751
F-0.15802191197872162
F-0.1635267436504364
F0.5681871771812439
F0.2303766906261444
F0.774903416633606
F-0.8109725117683411
F0.3983718454837799
F-0.15449683368206024
F1.0170046091079712
F0.034916967153549194
F0.3372117280960083
F-0.34906524419784546
I-1
I346
tp1042
tp1043
Rp1044
ag1
(g2
g3
(F-0.7711103558540344
F-0.1606152355670929
F-0.22413292527198792
F0.5738955140113831
F-0.06399352848529816
F0.9098715782165527
F0.4898413419723511
F-0.24318909645080566
F-0.5066681504249573
F0.9061133861541748
F0.043114397674798965
F0.3364291489124298
F-0.3472173511981964
I-1
I347
tp1045
tp1046
Rp1047
ag1
(g2
g3
(F-0.7702993154525757
F-0.13778090476989746
F-0.23401521146297455
F0.576968252658844
F0.024433892220258713
F0.6818219423294067
F0.9982990026473999
F-0.0822654440999031
F-0.41127079725265503
F0.8866548538208008
F0.07497759163379669
F0.3323417007923126
F-0.34446218609809875
I-1
I348
tp1048
tp1049
Rp1050
ag1
(g2
g3
(F-0.7736023664474487
F-0.11041274666786194
F-0.2103196531534195
F0.5874643325805664
F0.2524835467338562
F0.7888656258583069
F0.5375456213951111
F0.12219304591417313
F-0.3260922133922577
F0.915667712688446
F0.12134381383657455
F0.3220627009868622
F-0.3426719307899475
I-1
I349
tp1051
tp1052
Rp1053
ag1
(g2
g3
(F-0.7778686285018921
F-0.09093788266181946
F-0.1954948455095291
F0.5902819037437439
F-0.06399352848529816
F0.28157150745391846
F-0.5328915119171143
F-0.15228408575057983
F-0.43480607867240906
F0.8744662404060364
F0.1596616953611374
F0.3227159380912781
F-0.32784661650657654
I-1
I350
tp1054
tp1055
Rp1056
ag1
(g2
g3
(F-0.7553631663322449
F-0.211097851395607
F-0.03925386071205139
F0.619131326675415
F-0.3106594681739807
F-0.137295201420784
F-2.565558671951294
F0.007164936978369951
F-0.28525492548942566
F0.8445260524749756
F-0.028046999126672745
F0.27278950810432434
F-0.4198734164237976
I-1
I351
tp1057
tp1058
Rp1059
ag1
(g2
g3
(F-0.7621670365333557
F-0.22019822895526886
F-0.10528939962387085
F0.5996068716049194
F0.06981112062931061
F0.5608159899711609
F2.0291764736175537
F0.3115195631980896
F-0.07722777873277664
F0.8728100657463074
F-0.01217762939631939
F0.29777631163597107
F-0.40674322843551636
I-1
I352
tp1060
tp1061
Rp1062
ag1
(g2
g3
(F-0.7867144346237183
F-0.1612313687801361
F-0.05198805034160614
F0.5936179161071777
F-1.5579514503479004
F-0.988990843296051
F1.4567253589630127
F1.7632938623428345
F-0.9025479555130005
F1.2293447256088257
F0.030108537524938583
F0.32044199109077454
F-0.38806891441345215
I-1
I353
tp1063
tp1064
Rp1065
ag1
(g2
g3
(F-0.7940182685852051
F-0.21040502190589905
F-0.05781662464141846
F0.567381739616394
F-0.19314409792423248
F0.5026400685310364
F-2.4468796253204346
F-0.32472145557403564
F-0.21524059772491455
F0.8546565771102905
F-0.03176344186067581
F0.33057335019111633
F-0.37782368063926697
I-1
I354
tp1066
tp1067
Rp1068
ag1
(g2
g3
(F-0.767083466053009
F-0.2258472889661789
F-0.17593452334403992
F0.5741283297538757
F-0.5107846856117249
F0.4560993015766144
F1.8744285106658936
F-0.024109333753585815
F-0.7118913531303406
F0.7866442799568176
F-0.043475423008203506
F0.34049659967422485
F-0.3712778389453888
I-1
I355
tp1069
tp1070
Rp1071
ag1
(g2
g3
(F-0.7460298538208008
F-0.14654414355754852
F-0.2854633331298828
F0.5835026502609253
F0.07446519285440445
F-0.23154020309448242
F1.23565673828125
F-0.29710957407951355
F-0.5518544912338257
F1.0782699584960938
F0.10797465592622757
F0.343685120344162
F-0.36012616753578186
I-1
I356
tp1072
tp1073
Rp1074
ag1
(g2
g3
(F-0.7546979784965515
F-0.11659687757492065
F-0.24432286620140076
F0.5976141095161438
F0.4328289330005646
F-0.7237085700035095
F0.24666595458984375
F0.22993099689483643
F-0.2797700762748718
F1.0861430168151855
F0.1251072883605957
F0.33019158244132996
F-0.36576876044273376
I-1
I357
tp1075
tp1076
Rp1077
ag1
(g2
g3
(F-0.7475728392601013
F-0.13726842403411865
F-0.20513130724430084
F0.6166146397590637
F0.7655952572822571
F-2.13854718208313
F0.32694873213768005
F-0.23549798130989075
F-0.2091888040304184
F0.84031081199646
F0.07342705875635147
F0.2889278531074524
F-0.41327303647994995
I-1
I358
tp1078
tp1079
Rp1080
ag1
(g2
g3
(F-0.7479033470153809
F-0.198738694190979
F-0.052000030875205994
F0.631220817565918
F-0.20245224237442017
F-1.2833610773086548
F-0.32927578687667847
F0.1715259701013565
F-0.15977837145328522
F0.9879708886146545
F-0.004303004592657089
F0.27492642402648926
F-0.425412654876709
I-1
I359
tp1081
tp1082
Rp1083
ag1
(g2
g3
(F-0.7271060347557068
F-0.30811846256256104
F-0.1455274224281311
F0.5959880948066711
F-0.5701241493225098
F-0.0034905560314655304
F-0.8167901039123535
F-0.3568185269832611
F-0.3159862756729126
F0.741192102432251
F-0.11001177132129669
F0.2809029817581177
F-0.3939014673233032
I-1
I360
tp1084
tp1085
Rp1086
ag1
(g2
g3
(F-0.7385460138320923
F-0.29086795449256897
F-0.1769014298915863
F0.581937849521637
F0.07679223269224167
F0.6550610065460205
F1.1891160011291504
F0.07278310507535934
F-0.17575378715991974
F0.8440346121788025
F-0.07136313617229462
F0.3043755888938904
F-0.3835565149784088
I-1
I361
tp1087
tp1088
Rp1089
ag1
(g2
g3
(F-0.7833958864212036
F-0.23069243133068085
F-0.12087185680866241
F0.5643244981765747
F0.12216945737600327
F-0.2652822434902191
F-3.0332930088043213
F-0.05291583016514778
F-0.24443110823631287
F0.7736417651176453
F-0.07273058593273163
F0.33560407161712646
F-0.35557109117507935
I-1
I362
tp1090
tp1091
Rp1092
ag1
(g2
g3
(F-0.7523430585861206
F-0.2941872775554657
F-0.19363054633140564
F0.5567236542701721
F0.14078575372695923
F0.22572261095046997
F1.9023529291152954
F0.17644815146923065
F-0.14064458012580872
F1.2436538934707642
F-0.09392476081848145
F0.3206753432750702
F-0.35567158460617065
I-1
I363
tp1093
tp1094
Rp1095
ag1
(g2
g3
(F-0.7338298559188843
F-0.26624539494514465
F-0.3047238290309906
F0.545665442943573
F-0.07097464054822922
F0.5166022777557373
F0.21059687435626984
F-0.32926180958747864
F-0.4204541742801666
F0.9703618884086609
F-0.0765746682882309
F0.321961373090744
F-0.3371405303478241
I-1
I364
tp1096
tp1097
Rp1098
ag1
(g2
g3
(F-0.7276520133018494
F-0.24424560368061066
F-0.15315444767475128
F0.6224231123924255
F-0.11751538515090942
F-0.4921683967113495
F-0.9727016091346741
F0.0732901394367218
F-0.15877459943294525
F0.9431400895118713
F-0.01116427592933178
F0.24148431420326233
F-0.35340291261672974
I-1
I365
tp1099
tp1100
Rp1101
ag1
(g2
g3
(F-0.7077815532684326
F-0.3169335126876831
F-0.28084060549736023
F0.5654442310333252
F-0.3665083646774292
F0.3316028118133545
F-0.8947458267211914
F0.09205076843500137
F-0.1881864070892334
F1.0724542140960693
F-0.04817285016179085
F0.26772141456604004
F-0.3106381893157959
I-1
I366
tp1102
tp1103
Rp1104
ag1
(g2
g3
(F0.20074468851089478
F-0.5380191802978516
F-0.766649603843689
F-0.2872030735015869
F-0.15823853015899658
F-0.6888030171394348
F-2.0466291904449463
F0.14721928536891937
F-0.1864837408065796
F0.9869958162307739
F-0.13879139721393585
F-0.13027675449848175
F-0.4697582721710205
I-1
I367
tp1105
tp1106
Rp1107
ag1
(g2
g3
(F0.2828574478626251
F-0.48094940185546875
F-0.7906705737113953
F-0.2520309090614319
F-0.10588019341230392
F0.6783313751220703
F-1.454398274421692
F-0.6064184904098511
F-0.12370974570512772
F1.3021395206451416
F-0.10066666454076767
F-0.07969208061695099
F-0.5046107172966003
I-1
I368
tp1108
tp1109
Rp1110
ag1
(g2
g3
(F0.4003867506980896
F-0.5188090801239014
F-0.7339460849761963
F-0.17846828699111938
F-0.033742040395736694
F1.2135499715805054
F0.011635186150670052
F-0.06088954955339432
F-0.3578481376171112
F0.8608379364013672
F0.081028051674366
F-0.06618589907884598
F-0.5202423930168152
I-1
I369
tp1111
tp1112
Rp1113
ag1
(g2
g3
(F0.45420321822166443
F-0.47103431820869446
F-0.7198225259780884
F-0.2316933423280716
F-0.016289260238409042
F-0.2420118749141693
F0.31415003538131714
F-0.3778413236141205
F-0.551582396030426
F1.0278429985046387
F0.11319603025913239
F-0.049263980239629745
F-0.5192014575004578
I-1
I370
tp1114
tp1115
Rp1116
ag1
(g2
g3
(F0.25048840045928955
F-0.485833078622818
F-0.756341278553009
F-0.35940203070640564
F-0.19663465023040771
F-0.1943076103925705
F-1.2891786098480225
F-0.1905447095632553
F-0.21597830951213837
F0.7314743995666504
F-0.16810497641563416
F-0.13898706436157227
F-0.4790792167186737
I-1
I371
tp1117
tp1118
Rp1119
ag1
(g2
g3
(F0.22680355608463287
F-0.46656569838523865
F-0.80058354139328
F-0.2999047636985779
F-0.046540744602680206
F0.5526713728904724
F-1.9907803535461426
F-0.4577183127403259
F-0.21763230860233307
F0.8324641585350037
F-0.1826976090669632
F-0.07614246010780334
F-0.4777427017688751
I-1
I372
tp1120
tp1121
Rp1122
ag1
(g2
g3
(F0.2534897029399872
F-0.4777497947216034
F-0.7927764654159546
F-0.28107625246047974
F-0.14427630603313446
F0.8540226817131042
F0.5666335821151733
F-0.30055081844329834
F-0.5428421497344971
F0.9380056858062744
F-0.11112140864133835
F-0.04599228873848915
F-0.49790874123573303
I-1
I373
tp1123
tp1124
Rp1125
ag1
(g2
g3
(F0.2318415641784668
F-0.5746760964393616
F-0.7683491706848145
F-0.16011476516723633
F0.2548105716705322
F-2.047792911529541
F1.0878899097442627
F-0.06461633741855621
F-0.484220027923584
F1.388060212135315
F-0.11386976391077042
F-0.1098470613360405
F-0.4751773476600647
I-1
I374
tp1126
tp1127
Rp1128
ag1
(g2
g3
(F0.19337476789951324
F-0.5422261953353882
F-0.774846076965332
F-0.2611716091632843
F-0.438646525144577
F-0.032578520476818085
F-1.3636438846588135
F-0.4207519292831421
F-0.3574945628643036
F0.7394793629646301
F-0.17171776294708252
F-0.1369183361530304
F-0.4336909055709839
I-1
I375
tp1129
tp1130
Rp1131
ag1
(g2
g3
(F0.23467454314231873
F-0.5300996899604797
F-0.787457287311554
F-0.2093641459941864
F-1.6580140590667725
F-1.2740528583526611
F0.941286563873291
F1.8975803852081299
F-1.0990550518035889
F1.353119134902954
F-0.16235587000846863
F-0.05736716464161873
F-0.44613224267959595
I-1
I376
tp1132
tp1133
Rp1134
ag1
(g2
g3
(F0.23316572606563568
F-0.4981633722782135
F-0.8130422830581665
F-0.1908651441335678
F0.3420744836330414
F0.29204317927360535
F-4.132818222045898
F0.8452739119529724
F-0.9591649770736694
F1.3231192827224731
F-0.1440832018852234
F-0.05524386093020439
F-0.4414859712123871
I-1
I377
tp1135
tp1136
Rp1137
ag1
(g2
g3
(F0.2501237690448761
F-0.5690385103225708
F-0.7734217047691345
F-0.12430776655673981
F0.7074193358421326
F-1.5160647630691528
F1.0099341869354248
F-0.08429387956857681
F-0.05940914899110794
F0.8960840106010437
F-0.047982197254896164
F-0.09499620646238327
F-0.4463651776313782
I-1
I378
tp1138
tp1139
Rp1140
ag1
(g2
g3
(F0.16046743094921112
F-0.6052249670028687
F-0.7707103490829468
F-0.11814682930707932
F0.26644575595855713
F-0.7679222822189331
F1.0343680381774902
F-0.05726930871605873
F-0.18156562745571136
F0.9255788922309875
F-0.10935145616531372
F-0.11313074827194214
F-0.42797109484672546
I-1
I379
tp1141
tp1142
Rp1143
ag1
(g2
g3
(F0.139336958527565
F-0.6106875538825989
F-0.7718683481216431
F-0.10892843455076218
F-0.1710372418165207
F0.22106854617595673
F-0.6271365284919739
F0.0878668874502182
F-0.18960368633270264
F0.8693661093711853
F-0.12114425003528595
F-0.10872738063335419
F-0.4270176291465759
I-1
I380
tp1144
tp1145
Rp1146
ag1
(g2
g3
(F0.3856586813926697
F-0.5069928765296936
F-0.7111794948577881
F-0.2974046766757965
F-0.05468537658452988
F0.8307523131370544
F-3.005368709564209
F0.00817684456706047
F-0.30300846695899963
F0.9840609431266785
F0.023926975205540657
F-0.10490968078374863
F-0.4454954266548157
I-1
I381
tp1147
tp1148
Rp1149
ag1
(g2
g3
(F0.5908005237579346
F-0.3838222026824951
F-0.5486302971839905
F-0.45015597343444824
F-0.6969476938247681
F0.601539134979248
F-2.3305277824401855
F-0.9040517210960388
F-0.28845715522766113
F0.9726271629333496
F0.1453283578157425
F-0.03547019511461258
F-0.4366908669471741
I-1
I382
tp1150
tp1151
Rp1152
ag1
(g2
g3
(F0.6986505389213562
F-0.2756361663341522
F-0.45709747076034546
F-0.47641798853874207
F-0.10704371333122253
F0.7702493667602539
F-1.52188241481781
F0.10834265500307083
F-0.3887338638305664
F0.8866985440254211
F0.19147971272468567
F0.06494104862213135
F-0.4147280156612396
I-1
I383
tp1153
tp1154
Rp1155
ag1
(g2
g3
(F0.7861513495445251
F-0.14700457453727722
F-0.2783607244491577
F-0.5318563580513
F0.27109983563423157
F0.09308148920536041
F-1.0064436197280884
F0.13117314875125885
F-0.26247236132621765
F0.9149273037910461
F0.1931990683078766
F0.18307757377624512
F-0.37783780694007874
I-1
I384
tp1156
tp1157
Rp1158
ag1
(g2
g3
(F0.7800095677375793
F-0.06999390572309494
F-0.20214122533798218
F-0.5880687832832336
F0.5317280292510986
F-0.6480798721313477
F-1.8360323905944824
F0.2247728407382965
F-0.18844127655029297
F0.9660738110542297
F0.16776049137115479
F0.18996985256671906
F-0.38520392775535583
I-1
I385
tp1159
tp1160
Rp1161
ag1
(g2
g3
(F0.7483311295509338
F0.04190242290496826
F-0.17229920625686646
F-0.6391853094100952
F0.35138264298439026
F0.005817593075335026
F-2.2956223487854004
F0.4788324534893036
F-0.3259122371673584
F0.7898628115653992
F0.094828762114048
F0.19243234395980835
F-0.4055692255496979
I-1
I386
tp1162
tp1163
Rp1164
ag1
(g2
g3
(F0.7487915754318237
F0.12196201086044312
F-0.09546899795532227
F-0.6444551348686218
F-0.501476526260376
F0.9959719777107239
F-3.302065849304199
F0.1486722081899643
F-0.3248680531978607
F0.8294715881347656
F0.06150168552994728
F0.2212425172328949
F-0.39705005288124084
I-1
I387
tp1165
tp1166
Rp1167
ag1
(g2
g3
(F0.7521213293075562
F0.17862574756145477
F0.053343042731285095
F-0.6321085095405579
F-0.3548731803894043
F-0.18965353071689606
F-0.9063810110092163
F0.013497283682227135
F-0.20830143988132477
F0.9628587961196899
F0.02456696890294552
F0.25278955698013306
F-0.3811051547527313
I-1
I388
tp1168
tp1169
Rp1170
ag1
(g2
g3
(F0.7596169114112854
F0.235311359167099
F0.05913637578487396
F-0.6034184694290161
F-0.3199676275253296
F-0.2396848350763321
F-0.6445893049240112
F0.39542147517204285
F-0.2049708515405655
F0.8373031616210938
F-0.007093830034136772
F0.27068862318992615
F-0.3680272698402405
I-1
I389
tp1171
tp1172
Rp1173
ag1
(g2
g3
(F0.7618738412857056
F0.26314425468444824
F0.03359711170196533
F-0.5909101366996765
F-0.031415004283189774
F0.06632056087255478
F0.027924448251724243
F0.4195089340209961
F-0.2113025188446045
F0.9013535380363464
F-0.015235607512295246
F0.27520501613616943
F-0.3578123450279236
I-1
I390
tp1174
tp1175
Rp1176
ag1
(g2
g3
(F0.773331880569458
F0.2632051706314087
F0.0713377296924591
F-0.5723564624786377
F-0.6410987973213196
F0.5317280292510986
F1.866283893585205
F0.05338602513074875
F-0.33432915806770325
F0.9022589325904846
F-0.0039922744035720825
F0.29560360312461853
F-0.33730459213256836
I-1
I391
tp1177
tp1178
Rp1179
ag1
(g2
g3
(F0.7848348021507263
F0.17490261793136597
F0.13293315470218658
F-0.5794587135314941
F0.011635186150670052
F0.7446519136428833
F0.9703745245933533
F-0.05017875134944916
F-0.38748061656951904
F0.8842232823371887
F0.05899415910243988
F0.29929104447364807
F-0.33264264464378357
I-1
I392
tp1180
tp1181
Rp1182
ag1
(g2
g3
(F0.7866649031639099
F0.11254605650901794
F0.11368198692798615
F-0.5962954759597778
F0.35254615545272827
F1.0669466257095337
F-0.4107220768928528
F0.15598013997077942
F-0.30715706944465637
F0.9025230407714844
F0.12446486204862595
F0.28564080595970154
F-0.3299461305141449
I-1
I393
tp1183
tp1184
Rp1185
ag1
(g2
g3
(F0.7780176997184753
F0.103541299700737
F0.15512016415596008
F-0.5999212861061096
F-0.07330167293548584
F0.8482050895690918
F-0.3199676275253296
F0.02882155030965805
F-0.3119804561138153
F0.8905600309371948
F0.1464017629623413
F0.28879112005233765
F-0.31603240966796875
I-1
I394
tp1186
tp1187
Rp1188
ag1
(g2
g3
(F0.7692944407463074
F0.10586389899253845
F0.11352084577083588
F-0.6197515726089478
F0.5003130435943604
F-2.231628656387329
F0.16871020197868347
F-0.45296725630760193
F-0.4151188135147095
F1.1646506786346436
F0.10849588364362717
F0.25405222177505493
F-0.3746044933795929
I-1
I395
tp1189
tp1190
Rp1191
ag1
(g2
g3
(F0.7478189468383789
F0.21570107340812683
F0.03526833653450012
F-0.6268941760063171
F-0.42817485332489014
F0.09773556888103485
F-2.9611549377441406
F0.07038913667201996
F-0.3178117275238037
F0.854775607585907
F-0.02177567407488823
F0.2648065388202667
F-0.39677441120147705
I-1
I396
tp1192
tp1193
Rp1194
ag1
(g2
g3
(F0.7312858700752258
F0.2749675214290619
F0.1303045004606247
F-0.6104381680488586
F-0.26877281069755554
F-0.5352185964584351
F-2.2013771533966064
F0.7240718603134155
F-0.7672402858734131
F1.0174471139907837
F0.020897461101412773
F0.31404343247413635
F-0.3677394688129425
I-1
I397
tp1195
tp1196
Rp1197
ag1
(g2
g3
(F0.7650381326675415
F0.22339418530464172
F0.15289850533008575
F-0.5843234062194824
F0.17918187379837036
F0.2652822434902191
F1.0250599384307861
F-0.08711665868759155
F-0.14494121074676514
F1.1902596950531006
F-0.02188507840037346
F0.3198356330394745
F-0.36492860317230225
I-1
I398
tp1198
tp1199
Rp1200
ag1
(g2
g3
(F0.750550389289856
F0.23080846667289734
F0.21965372562408447
F-0.5789249539375305
F-0.3572002351284027
F0.5235834121704102
F1.4253103733062744
F-0.033596742898225784
F-0.5895205140113831
F0.8840225338935852
F-0.02804252691566944
F0.3353642225265503
F-0.3518630862236023
I-1
I399
tp1201
tp1202
Rp1203
ag1
(g2
g3
(F0.7541007995605469
F0.20842862129211426
F0.2481555938720703
F-0.5712341666221619
F-0.055848896503448486
F1.0017895698547363
F-0.3350933790206909
F0.028826406225562096
F-0.3391762375831604
F0.8835033774375916
F0.12599757313728333
F0.32851487398147583
F-0.34448108077049255
I-1
I400
tp1204
tp1205
Rp1206
ag1
(g2
g3
(F0.7459577322006226
F0.13616271317005157
F0.284600168466568
F-0.5865233540534973
F-0.06515704095363617
F0.12915056943893433
F-0.37116244435310364
F-0.3734924793243408
F-0.5605456829071045
F0.9097435474395752
F0.13167248666286469
F0.34237608313560486
F-0.3332771956920624
I-1
I401
tp1207
tp1208
Rp1209
ag1
(g2
g3
(F0.7552518844604492
F0.10737480223178864
F0.23506705462932587
F-0.6023361682891846
F0.9820097088813782
F-1.2984868288040161
F0.006981112062931061
F0.010098145343363285
F-0.10123519599437714
F1.0853230953216553
F0.14586497843265533
F0.3150012195110321
F-0.3593837320804596
I-1
I402
tp1210
tp1211
Rp1212
ag1
(g2
g3
(F0.7461990118026733
F0.16817834973335266
F0.06888212263584137
F-0.6404362320899963
F-0.3304392993450165
F-0.8005008101463318
F-1.9884533882141113
F0.11489467322826385
F-0.1510378122329712
F1.0675827264785767
F0.006657133810222149
F0.2759936451911926
F-0.4263303279876709
I-1
I403
tp1213
tp1214
Rp1215
ag1
(g2
g3
(F0.7380724549293518
F0.2797490060329437
F0.16765016317367554
F-0.5906634330749512
F-0.5712876319885254
F0.5654700398445129
F0.7655952572822571
F-0.02768392488360405
F-0.002095520030707121
F0.7955176830291748
F-0.0878138393163681
F0.3022008538246155
F-0.4002411961555481
I-1
I404
tp1216
tp1217
Rp1218
ag1
(g2
g3
(F0.7446226477622986
F0.2495083510875702
F0.17034274339675903
F-0.5952027440071106
F0.13496816158294678
F0.7237085700035095
F1.114650845527649
F0.09852416813373566
F-0.05143001675605774
F0.8425562977790833
F-0.055792417377233505
F0.3090510964393616
F-0.4020444452762604
I-1
I405
tp1219
tp1220
Rp1221
ag1
(g2
g3
(F0.7816693782806396
F0.19623027741909027
F0.10429029166698456
F-0.5827610492706299
F-0.19198057055473328
F-0.2303766906261444
F-2.1036417484283447
F0.06916696578264236
F-0.2626939117908478
F0.8822813630104065
F-0.03790980577468872
F0.3469500243663788
F-0.3749389350414276
I-1
I406
tp1222
tp1223
Rp1224
ag1
(g2
g3
(F0.7699132561683655
F0.2338268756866455
F0.24314117431640625
F-0.5417020320892334
F-0.5724511742591858
F0.35254615545272827
F1.198424220085144
F0.3327908515930176
F-0.530363142490387
F0.9069933891296387
F-0.06688492745161057
F0.3612929582595825
F-0.35262376070022583
I-1
I407
tp1225
tp1226
Rp1227
ag1
(g2
g3
(F0.7583488821983337
F0.24568308889865875
F0.2794071137905121
F-0.5352369546890259
F-0.16754668951034546
F0.7737398743629456
F-0.2652822434902191
F-0.3467726409435272
F-0.5066350698471069
F0.8649341464042664
F-0.06691087037324905
F0.3594829738140106
F-0.3498575985431671
I-1
I408
tp1228
tp1229
Rp1230
ag1
(g2
g3
(F0.7508562207221985
F0.22724255919456482
F0.30789780616760254
F-0.5383073091506958
F-0.018616298213601112
F0.6771678328514099
F0.7074193358421326
F-0.23951750993728638
F-0.5113006234169006
F0.9996230602264404
F-0.04495098814368248
F0.36435332894325256
F-0.352601021528244
I-1
I409
tp1231
tp1232
Rp1233
ag1
(g2
g3
(F0.74788498878479
F0.18757188320159912
F0.3101245164871216
F-0.5561544299125671
F0.18965353071689606
F0.9191797375679016
F0.7935197353363037
F0.04756680503487587
F-0.3442940413951874
F0.9558315873146057
F-0.0002381882513873279
F0.36588743329048157
F-0.35721564292907715
I-1
I410
tp1234
tp1235
Rp1236
ag1
(g2
g3
(F0.7369718551635742
F0.18543457984924316
F0.30801934003829956
F-0.5723730325698853
F0.2850620746612549
F1.1065062284469604
F0.18732650578022003
F0.07768992334604263
F-0.32704460620880127
F0.8732860088348389
F0.03976758196949959
F0.3573075532913208
F-0.3609711527824402
I-1
I411
tp1237
tp1238
Rp1239
ag1
(g2
g3
(F0.7251291871070862
F0.1694962978363037
F0.3205212354660034
F-0.5854271650314331
F-0.2175779789686203
F0.9063810110092163
F0.23735779523849487
F0.20168627798557281
F-0.38243037462234497
F0.8207296133041382
F0.09258691221475601
F0.35172125697135925
F-0.35451918840408325
I-1
I412
tp1240
tp1241
Rp1242
ag1
(g2
g3
(F0.7340335845947266
F0.1734502911567688
F0.23360592126846313
F-0.6136270761489868
F0.7981737852096558
F-2.290968179702759
F0.27342689037323
F-0.39372843503952026
F-0.28590643405914307
F0.9525437355041504
F0.04355175793170929
F0.3041355311870575
F-0.39650845527648926
I-1
I413
tp1243
tp1244
Rp1245
ag1
(g2
g3
(F0.7563048005104065
F0.2584875822067261
F0.1991085559129715
F-0.5670479536056519
F0.11984241753816605
F-0.6492434144020081
F-1.9291138648986816
F-0.07384874671697617
F-0.18711034953594208
F0.7346639633178711
F-0.07379809021949768
F0.3247430622577667
F-0.3371219336986542
I-1
I414
tp1246
tp1247
Rp1248
ag1
(g2
g3
(F0.7382564544677734
F0.27890151739120483
F0.2361849844455719
F-0.5669286847114563
F-0.777230441570282
F0.08377334475517273
F0.9727016091346741
F1.1779347658157349
F-0.5138359069824219
F1.0245747566223145
F-0.07664041221141815
F0.317409485578537
F-0.33439233899116516
I-1
I415
tp1249
tp1250
Rp1251
ag1
(g2
g3
(F0.7482471466064453
F0.20862409472465515
F0.30162936449050903
F-0.5528310537338257
F0.19663465023040771
F-0.36185428500175476
F1.1751538515090942
F-0.000282119435723871
F-0.5902613997459412
F0.9066774845123291
F0.05922626331448555
F0.31502652168273926
F-0.301980584859848
I-1
I416
tp1252
tp1253
Rp1254
ag1
(g2
g3
(F0.7807748317718506
F0.09251609444618225
F0.1587122529745102
F-0.5971951484680176
F0.037232596427202225
F-0.7655952572822571
F1.7871646881103516
F-0.37186938524246216
F-0.29730555415153503
F0.8514947295188904
F0.14138558506965637
F0.2575357258319855
F-0.3338325619697571
I-1
I417
tp1255
tp1256
Rp1257
ag1
(g2
g3
(F0.5985572338104248
F-0.3638956546783447
F-0.4812777042388916
F-0.526954710483551
F0.017452780157327652
F-0.8831106424331665
F2.6027913093566895
F0.31841471791267395
F-0.33974823355674744
F0.9666133522987366
F0.15029968321323395
F-0.07006161659955978
F-0.42765694856643677
I-1
I418
tp1258
tp1259
Rp1260
ag1
(g2
g3
(F0.46527886390686035
F-0.3607936501502991
F-0.6292705535888672
F-0.5073089599609375
F-0.20012520253658295
F-0.1710372418165207
F0.17452779412269592
F0.10490582138299942
F-0.25153353810310364
F0.8883760571479797
F0.07395528256893158
F-0.11422763019800186
F-0.4446244239807129
I-1
I419
tp1261
tp1262
Rp1263
ag1
(g2
g3
(F0.5022691488265991
F-0.36195990443229675
F-0.6111511588096619
F-0.49315834045410156
F-0.5387091040611267
F0.46308040618896484
F0.5200928449630737
F0.1905573159456253
F-0.29797956347465515
F1.1214455366134644
F0.0881132185459137
F-0.08123348653316498
F-0.46107470989227295
I-1
I420
tp1264
tp1265
Rp1266
ag1
(g2
g3
(F0.4568038582801819
F-0.4954693019390106
F-0.7087464928627014
F-0.20861206948757172
F-0.08842741698026657
F0.30484187602996826
F-0.31647706031799316
F-0.14886684715747833
F-0.4770619571208954
F0.886894166469574
F0.11400213092565536
F-0.05656249821186066
F-0.5192492008209229
I-1
I421
tp1267
tp1268
Rp1269
ag1
(g2
g3
(F0.20893745124340057
F-0.5397661924362183
F-0.7713268995285034
F-0.2646747827529907
F-0.35138264298439026
F-0.6957841515541077
F-2.111786365509033
F-0.0022872132249176502
F-0.18403325974941254
F1.0617152452468872
F-0.1669950634241104
F-0.12530618906021118
F-0.4854715168476105
I-1
I422
tp1270
tp1271
Rp1272
ag1
(g2
g3
(F0.2227921485900879
F-0.5058990120887756
F-0.8033230304718018
F-0.221590057015419
F-1.5067566633224487
F-1.0494937896728516
F1.654523491859436
F1.7768579721450806
F-0.7667946219444275
F1.1569997072219849
F-0.17400150001049042
F-0.04236194118857384
F-0.5015966892242432
I-1
I423
tp1273
tp1274
Rp1275
ag1
(g2
g3
(F0.29409536719322205
F-0.4982110261917114
F-0.7996305227279663
F-0.16088762879371643
F0.0011635186383500695
F0.7120733857154846
F0.9017269611358643
F-0.2040591984987259
F-0.4357733130455017
F0.9192591905593872
F-0.11094871908426285
F-0.034104637801647186
F-0.49690473079681396
I-1
I424
tp1276
tp1277
Rp1278
ag1
(g2
g3
(F0.25125354528427124
F-0.52704918384552
F-0.8055045008659363
F-0.1012595146894455
F0.35021910071372986
F0.9203432202339172
F0.0034905560314655304
F0.10589394718408585
F-0.3110283315181732
F0.8927707672119141
F-0.05986399203538895
F-0.03340957313776016
F-0.5043021440505981
I-1
I425
tp1279
tp1280
Rp1281
ag1
(g2
g3
(F0.32129642367362976
F-0.5216338634490967
F-0.7818872928619385
F-0.11540862172842026
F0.068647600710392
F0.1361316740512848
F-0.18616297841072083
F-0.24684856832027435
F-0.4318794012069702
F0.9287446141242981
F0.019382432103157043
F-0.04049297049641609
F-0.5061910152435303
I-1
I426
tp1282
tp1283
Rp1284
ag1
(g2
g3
(F0.21293458342552185
F-0.5825902223587036
F-0.7739367485046387
F-0.1275523155927658
F0.617828369140625
F-2.1943962574005127
F0.16987371444702148
F-0.3531304597854614
F-0.2740161716938019
F0.9454899430274963
F-0.08804994821548462
F-0.09034205973148346
F-0.4843065142631531
I-1
I427
tp1285
tp1286
Rp1287
ag1
(g2
g3
(F0.07396923005580902
F-0.5784310698509216
F-0.7934320569038391
F-0.174390509724617
F-0.20826983451843262
F-0.5677971243858337
F-2.5993006229400635
F0.07670871168375015
F-0.1942334771156311
F0.9674987196922302
F-0.22122621536254883
F-0.09188345074653625
F-0.42321521043777466
I-1
I428
tp1288
tp1289
Rp1290
ag1
(g2
g3
(F0.12520289421081543
F-0.5666739344596863
F-0.7785834074020386
F-0.23877394199371338
F-0.16871020197868347
F0.7120733857154846
F0.138458713889122
F0.05087563395500183
F-0.10726304352283478
F0.8077330589294434
F-0.1993190050125122
F-0.09065703302621841
F-0.42413052916526794
I-1
I429
tp1291
tp1292
Rp1293
ag1
(g2
g3
(F0.18018828332424164
F-0.5296416282653809
F-0.8126489520072937
F-0.16313770413398743
F-0.663205623626709
F0.6806584000587463
F1.3729519844055176
F-0.1041262298822403
F-0.5139800310134888
F0.870110273361206
F-0.15627048909664154
F-0.07815175503492355
F-0.4240432679653168
I-1
I430
tp1294
tp1295
Rp1296
ag1
(g2
g3
(F0.18896307051181793
F-0.5613433122634888
F-0.8036923408508301
F-0.057144131511449814
F0.4014139175415039
F-0.613174319267273
F1.226348638534546
F-0.23104697465896606
F-0.40080517530441284
F0.951632559299469
F-0.09043222665786743
F-0.0663306787610054
F-0.43970009684562683
I-1
I431
tp1297
tp1298
Rp1299
ag1
(g2
g3
(F-0.09636113792657852
F-0.5912245512008667
F-0.7718812227249146
F0.21299690008163452
F-0.38396114110946655
F-0.23386724293231964
F4.638948917388916
F-0.22228936851024628
F-0.5222043991088867
F0.8535234928131104
F-0.18376271426677704
F0.03846028819680214
F-0.4158734679222107
I-1
I432
tp1300
tp1301
Rp1302
ag1
(g2
g3
(F-0.30415332317352295
F-0.508589506149292
F-0.6996005773544312
F0.3992325961589813
F-0.2862255871295929
F-0.54685378074646
F3.254361629486084
F0.05610058084130287
F-0.47736161947250366
F0.9232288002967834
F-0.15290898084640503
F0.15322156250476837
F-0.4012264311313629
I-1
I433
tp1303
tp1304
Rp1305
ag1
(g2
g3
(F-0.3624529242515564
F-0.48652562499046326
F-0.6749085783958435
F0.4200229048728943
F-0.05003130063414574
F-0.6341176629066467
F2.9483561515808105
F-0.014169977977871895
F-0.39382123947143555
F0.9799330234527588
F-0.13242685794830322
F0.18188264966011047
F-0.39547979831695557
I-1
I434
tp1306
tp1307
Rp1308
ag1
(g2
g3
(F-0.48232728242874146
F-0.4151882529258728
F-0.5722499489784241
F0.517212986946106
F-0.015125742182135582
F-0.6818219423294067
F3.5056817531585693
F0.036397505551576614
F-0.4290350079536438
F0.9319809675216675
F-0.07163218408823013
F0.22303318977355957
F-0.3859422206878662
I-1
I435
tp1309
tp1310
Rp1311
ag1
(g2
g3
(F-0.6337897181510925
F-0.3176532983779907
F-0.4033517837524414
F0.578545093536377
F-0.33974742889404297
F-0.34789207577705383
F2.2176666259765625
F0.09812097251415253
F-0.30277708172798157
F0.9292937517166138
F-0.0029993283096700907
F0.23869389295578003
F-0.3793489336967468
I-1
I436
tp1312
tp1313
Rp1314
ag1
(g2
g3
(F-0.6673513650894165
F-0.28027039766311646
F-0.35791707038879395
F0.5899035334587097
F-0.5829228162765503
F0.15823853015899658
F1.0704371929168701
F0.13020667433738708
F-0.24232544004917145
F0.9585115313529968
F0.022663841024041176
F0.24730919301509857
F-0.37651121616363525
I-1
I437
tp1315
tp1316
Rp1317
ag1
(g2
g3
(F-0.6984209418296814
F-0.21630354225635529
F-0.2923164963722229
F0.6164190173149109
F0.020943336188793182
F-0.1140248253941536
F0.4910048544406891
F-0.1673813760280609
F-0.26896145939826965
F0.9428570866584778
F0.13329331576824188
F0.2656000852584839
F-0.340262770652771
I-1
I438
tp1318
tp1319
Rp1320
ag1
(g2
g3
(F-0.7519007921218872
F-0.09392673522233963
F-0.19065773487091064
F0.6240774393081665
F-0.039559632539749146
F-0.048867784440517426
F0.5875769257545471
F-0.1491343230009079
F-0.28864097595214844
F0.9728171825408936
F0.13962623476982117
F0.2620430588722229
F-0.3393593430519104
I-1
I439
tp1321
tp1322
Rp1323
ag1
(g2
g3
(F-0.753268301486969
F-0.08596569299697876
F-0.17005234956741333
F0.6295070648193359
F0.06748408079147339
F0.2280496507883072
F0.12216945737600327
F-0.13090604543685913
F-0.30563557147979736
F0.9306977391242981
F0.1559545397758484
F0.25590208172798157
F-0.3366195559501648
I-1
I440
tp1324
tp1325
Rp1326
ag1
(g2
g3
(F-0.7582652568817139
F-0.06462062150239944
F-0.15220171213150024
F0.6306290030479431
F0.05352185666561127
F0.1489303857088089
F0.34091097116470337
F0.06093155965209007
F-0.34016433358192444
F0.9305091500282288
F0.17037835717201233
F0.2442387044429779
F-0.33576828241348267
I-1
I441
tp1327
tp1328
Rp1329
ag1
(g2
g3
(F-0.7887718081474304
F-0.0602262020111084
F-0.062165677547454834
F0.6085618734359741
F0.07679223269224167
F-0.8214441537857056
F-0.14311279356479645
F0.27263548970222473
F-0.28991207480430603
F0.7328227162361145
F0.1766979992389679
F0.23976771533489227
F-0.3348708152770996
I-1
I442
tp1330
tp1331
Rp1332
ag1
(g2
g3
(F-0.7882465124130249
F-0.08658115565776825
F-0.02545487880706787
F0.6087064146995544
F0.037232596427202225
F-1.5695866346359253
F0.6341176629066467
F-0.6084450483322144
F-0.3258303105831146
F1.7492619752883911
F0.14653731882572174
F0.2355780005455017
F-0.3497183620929718
I-1
I443
tp1333
tp1334
Rp1335
ag1
(g2
g3
(F-0.7709815502166748
F-0.14359374344348907
F0.03815707564353943
F0.6192838549613953
F-0.041886672377586365
F-1.1798079013824463
F-1.8104350566864014
F-0.043097686022520065
F-0.2668403387069702
F1.1218677759170532
F0.08635061979293823
F0.23639827966690063
F-0.37009286880493164
I-1
I444
tp1336
tp1337
Rp1338
ag1
(g2
g3
(F-0.7594655752182007
F-0.21688096225261688
F0.009520381689071655
F0.6132570505142212
F-0.3432379961013794
F-0.4595898687839508
F-1.020405888557434
F0.1530338078737259
F-0.15903465449810028
F0.9317152500152588
F0.006229772232472897
F0.24615037441253662
F-0.37744683027267456
I-1
I445
tp1339
tp1340
Rp1341
ag1
(g2
g3
(F-0.7783955335617065
F-0.23617568612098694
F-0.025813370943069458
F0.5810811519622803
F-0.6003755927085876
F0.31531354784965515
F0.8284252882003784
F0.16755951941013336
F-0.09392430633306503
F0.7478564381599426
F-0.0068916319869458675
F0.28449419140815735
F-0.35312026739120483
I-1
I446
tp1342
tp1343
Rp1344
ag1
(g2
g3
(F-0.8146111965179443
F-0.18495425581932068
F0.003527224063873291
F0.5497164130210876
F-0.14078575372695923
F0.137295201420784
F-1.8430135250091553
F-0.02686937339603901
F-0.27311021089553833
F0.8715447783470154
F0.006362369284033775
F0.3177269399166107
F-0.33067604899406433
I-1
I447
tp1345
tp1346
Rp1347
ag1
(g2
g3
(F-0.7884932160377502
F-0.23669026792049408
F-0.0978766530752182
F0.5591748356819153
F-0.3793070614337921
F0.3339298367500305
F1.9267868995666504
F-0.8581622838973999
F-0.4875064492225647
F0.5328976511955261
F-0.015346203930675983
F0.3301980793476105
F-0.3315228819847107
I-1
I448
tp1348
tp1349
Rp1350
ag1
(g2
g3
(F-0.791045606136322
F-0.0684673935174942
F-0.15509188175201416
F0.5877974629402161
F0.05817593261599541
F-0.44213709235191345
F1.588202953338623
F0.08797796070575714
F-0.4203352630138397
F1.0875951051712036
F0.17965291440486908
F0.31755998730659485
F-0.3223218321800232
I-1
I449
tp1351
tp1352
Rp1353
ag1
(g2
g3
(F-0.7695304751396179
F-0.07284087687730789
F-0.07167507708072662
F0.6303808689117432
F0.9773556590080261
F-2.129239082336426
F0.24782946705818176
F-0.2014780044555664
F-0.10405666381120682
F0.8700074553489685
F0.15354156494140625
F0.2784717082977295
F-0.37351280450820923
I-1
I450
tp1354
tp1355
Rp1356
ag1
(g2
g3
(F-0.7631276845932007
F-0.12441809475421906
F0.06751468777656555
F0.6305540204048157
F-0.3327663242816925
F-0.39792338013648987
F-2.8773815631866455
F0.05093797668814659
F-0.19131451845169067
F0.9743099808692932
F0.0048090568743646145
F0.27422910928726196
F-0.41245177388191223
I-1
I451
tp1357
tp1358
Rp1359
ag1
(g2
g3
(F-0.7514209151268005
F-0.24488021433353424
F-0.05735898017883301
F0.6100085973739624
F-0.44330060482025146
F-0.16289260983467102
F0.45377227663993835
F-0.26690754294395447
F-0.18753838539123535
F0.6788516640663147
F-0.0652591660618782
F0.285179078578949
F-0.3984981179237366
I-1
I452
tp1360
tp1361
Rp1362
ag1
(g2
g3
(F-0.7774403691291809
F-0.1785796582698822
F-0.02000001072883606
F0.6027403473854065
F-1.1472294330596924
F-0.2966972589492798
F2.1792705059051514
F1.3741577863693237
F-0.6246076226234436
F0.9864141941070557
F0.02455618418753147
F0.31490254402160645
F-0.384401798248291
I-1
I453
tp1363
tp1364
Rp1365
ag1
(g2
g3
(F-0.7816097736358643
F-0.22894014418125153
F-0.10933513939380646
F0.5698409080505371
F-0.010471668094396591
F0.8586767315864563
F0.6027026772499084
F-0.1518019288778305
F-0.41076719760894775
F0.8815235495567322
F-0.006797063164412975
F0.3538949191570282
F-0.36007317900657654
I-1
I454
tp1366
tp1367
Rp1368
ag1
(g2
g3
(F-0.7716164588928223
F-0.14657266438007355
F-0.2147834599018097
F0.5805107951164246
F0.3537096679210663
F1.0343680381774902
F0.6166648864746094
F0.10249385982751846
F-0.2821387052536011
F0.9356221556663513
F0.06784787774085999
F0.3439912497997284
F-0.36383315920829773
I-1
I455
tp1369
tp1370
Rp1371
ag1
(g2
g3
(F-0.7620391249656677
F-0.1278178095817566
F-0.23938825726509094
F0.587922215461731
F-0.12100593745708466
F0.31647706031799316
F-0.4118855893611908
F-0.06768163293600082
F-0.46201372146606445
F0.821651041507721
F0.11893676966428757
F0.344812273979187
F-0.35178321599960327
I-1
I456
tp1372
tp1373
Rp1374
ag1
(g2
g3
(F-0.7696272134780884
F-0.1085013672709465
F-0.222814679145813
F0.588434636592865
F0.1268235296010971
F-0.5456902384757996
F0.8959093689918518
F0.26983195543289185
F-0.36210548877716064
F1.1166075468063354
F0.14160889387130737
F0.33595627546310425
F-0.35924679040908813
I-1
I457
tp1375
tp1376
Rp1377
ag1
(g2
g3
(F-0.745563805103302
F-0.14249274134635925
F-0.10401920974254608
F0.6426589488983154
F0.18732650578022003
F-2.1629810333251953
F1.0134247541427612
F-0.22793987393379211
F-0.5633739233016968
F1.5482637882232666
F0.057823456823825836
F0.28223252296447754
F-0.42443111538887024
I-1
I458
tp1378
tp1379
Rp1380
ag1
(g2
g3
(F-0.7399962544441223
F-0.2821807563304901
F-0.10695651173591614
F0.6011157035827637
F-0.4014139175415039
F-0.32811224460601807
F-0.984336793422699
F-0.27052122354507446
F-0.2373339682817459
F0.7628712058067322
F-0.11547441780567169
F0.2816653847694397
F-0.4050094485282898
I-1
I459
tp1381
tp1382
Rp1383
ag1
(g2
g3
(F-0.7560864686965942
F-0.27871763706207275
F-0.13032013177871704
F0.5776387453079224
F-0.16754668951034546
F0.8447145223617554
F1.0913804769515991
F-0.016218120232224464
F-0.16892212629318237
F0.7877601385116577
F-0.09590136259794235
F0.31040915846824646
F-0.3844459354877472
I-1
I460
tp1384
tp1385
Rp1386
ag1
(g2
g3
(F-0.7642284631729126
F-0.2979322373867035
F-0.18799088895320892
F0.5402321219444275
F-0.5166022777557373
F0.09889908134937286
F-1.7906551361083984
F-1.0004639625549316
F0.15960857272148132
F0.8780354261398315
F-0.13308283686637878
F0.3247525990009308
F-0.34361129999160767
I-1
I461
tp1387
tp1388
Rp1389
a.